(dp0
(S'Luca'
p1
S'Pescatore'
p2
tp3
(dp4
S'bio'
p5
S'N/A'
p6
sS'surname'
p7
g2
sS'name'
p8
g1
sS'bday'
p9
g6
sS'country'
p10
g6
sS'isFamous'
p11
cnumpy.core.multiarray
scalar
p12
(cnumpy
dtype
p13
(S'b1'
p14
I0
I1
tp15
Rp16
(I3
S'|'
p17
NNNI-1
I-1
I0
tp18
bS'\x00'
p19
tp20
Rp21
sS'profession'
p22
g6
sS'money'
p23
I-1
sS'isPolitician'
p24
I01
sS'midname'
p25
g6
ss(S'Donald'
p26
S'Trump'
p27
tp28
(dp29
S'bio'
p30
S'Donald John Trump (born June 14, 1946) is the 45th and current President of the United States. Before entering politics, he was a businessman and television personality.\n'
p31
sS'money'
p32
F3100.0
sS'surname'
p33
S'Trump'
p34
sS'name'
p35
S'Donald'
p36
sS'bday'
p37
V1946-06-14
p38
sS'country'
p39
S'AMERICAN'
p40
sS'isFamous'
p41
g12
(g16
S'\x01'
p42
tp43
Rp44
sS'profession'
p45
VPolitician, businessman, real estate developer
p46
sS'month'
p47
I6
sS'year'
p48
I1946
sS'isPolitician'
p49
I01
sS'midname'
p50
VJohn
p51
sS'day'
p52
I14
ss(S'Tom'
p53
S'Cruise'
p54
tp55
(dp56
S'bio'
p57
S'Thomas Cruise Mapother IV (born July 3, 1962) is an American actor and producer. He started his career at age 19 in the film Endless Love (1981), before making his breakthrough in the comedy Risky Business (1983) and receiving widespread attention for starring in the action drama Top Gun (1986) as Lieutenant Pete "Maverick" Mitchell. After starring in The Color of Money (1986) and Cocktail (1988), Cruise starred opposite Dustin Hoffman in the Academy Award for Best Picture-winning drama Rain Man. For his role as anti-war activist Ron Kovic in the drama Born on the Fourth of July (1989), Cruise received the Golden Globe Award for Best Actor   Motion Picture Drama and his first Academy Award for Best Actor nomination.\n'
p58
sS'surname'
p59
S'Cruise'
p60
sS'bday'
p61
V1962-07-03
p62
sS'money'
p63
I570
sS'profession'
p64
S'Actor, producer'
p65
sS'month'
p66
I7
sS'year'
p67
I1962
sS'isPolitician'
p68
I00
sS'day'
p69
I3
sS'name'
p70
S'Tom'
p71
sS'country'
p72
S'American'
p73
sS'hasSites'
p74
I01
sS'isFamous'
p75
g44
sS'midname'
p76
VThomas  Mapother IV
p77
ss.