cpandas.core.indexes.base
_new_Index
p0
(cpandas.core.indexes.base
Index
p1
(dp2
S'data'
p3
cnumpy.core.multiarray
_reconstruct
p4
(cnumpy
ndarray
p5
(I0
tp6
S'b'
p7
tp8
Rp9
(I1
(I246
tp10
cnumpy
dtype
p11
(S'O8'
p12
I0
I1
tp13
Rp14
(I3
S'|'
p15
NNNI-1
I-1
I63
tp16
bI00
(lp17
S'scorePolSimple'
p18
aS'TweetCounts'
p19
aS'TweetFollow'
p20
aS'country'
p21
aS'money'
p22
aS'Code_-1'
p23
aS'Code_4'
p24
aS'Code_8'
p25
aS'Code_10'
p26
aS'Code_12'
p27
aS'Code_16'
p28
aS'Code_20'
p29
aS'Code_24'
p30
aS'Code_28'
p31
aS'Code_31'
p32
aS'Code_32'
p33
aS'Code_36'
p34
aS'Code_40'
p35
aS'Code_44'
p36
aS'Code_48'
p37
aS'Code_50'
p38
aS'Code_51'
p39
aS'Code_52'
p40
aS'Code_56'
p41
aS'Code_60'
p42
aS'Code_64'
p43
aS'Code_68'
p44
aS'Code_70'
p45
aS'Code_72'
p46
aS'Code_74'
p47
aS'Code_76'
p48
aS'Code_84'
p49
aS'Code_86'
p50
aS'Code_90'
p51
aS'Code_92'
p52
aS'Code_96'
p53
aS'Code_100'
p54
aS'Code_104'
p55
aS'Code_108'
p56
aS'Code_112'
p57
aS'Code_116'
p58
aS'Code_120'
p59
aS'Code_124'
p60
aS'Code_132'
p61
aS'Code_136'
p62
aS'Code_140'
p63
aS'Code_144'
p64
aS'Code_148'
p65
aS'Code_152'
p66
aS'Code_156'
p67
aS'Code_158'
p68
aS'Code_162'
p69
aS'Code_166'
p70
aS'Code_170'
p71
aS'Code_174'
p72
aS'Code_175'
p73
aS'Code_178'
p74
aS'Code_180'
p75
aS'Code_184'
p76
aS'Code_188'
p77
aS'Code_191'
p78
aS'Code_192'
p79
aS'Code_196'
p80
aS'Code_203'
p81
aS'Code_204'
p82
aS'Code_208'
p83
aS'Code_212'
p84
aS'Code_214'
p85
aS'Code_218'
p86
aS'Code_222'
p87
aS'Code_226'
p88
aS'Code_231'
p89
aS'Code_232'
p90
aS'Code_233'
p91
aS'Code_234'
p92
aS'Code_238'
p93
aS'Code_239'
p94
aS'Code_242'
p95
aS'Code_246'
p96
aS'Code_248'
p97
aS'Code_250'
p98
aS'Code_254'
p99
aS'Code_258'
p100
aS'Code_260'
p101
aS'Code_262'
p102
aS'Code_266'
p103
aS'Code_268'
p104
aS'Code_270'
p105
aS'Code_275'
p106
aS'Code_276'
p107
aS'Code_288'
p108
aS'Code_292'
p109
aS'Code_296'
p110
aS'Code_300'
p111
aS'Code_304'
p112
aS'Code_308'
p113
aS'Code_312'
p114
aS'Code_316'
p115
aS'Code_320'
p116
aS'Code_324'
p117
aS'Code_328'
p118
aS'Code_332'
p119
aS'Code_334'
p120
aS'Code_336'
p121
aS'Code_340'
p122
aS'Code_344'
p123
aS'Code_348'
p124
aS'Code_352'
p125
aS'Code_356'
p126
aS'Code_360'
p127
aS'Code_364'
p128
aS'Code_368'
p129
aS'Code_372'
p130
aS'Code_376'
p131
aS'Code_380'
p132
aS'Code_384'
p133
aS'Code_388'
p134
aS'Code_392'
p135
aS'Code_398'
p136
aS'Code_400'
p137
aS'Code_404'
p138
aS'Code_408'
p139
aS'Code_410'
p140
aS'Code_414'
p141
aS'Code_417'
p142
aS'Code_418'
p143
aS'Code_422'
p144
aS'Code_426'
p145
aS'Code_428'
p146
aS'Code_430'
p147
aS'Code_434'
p148
aS'Code_438'
p149
aS'Code_440'
p150
aS'Code_442'
p151
aS'Code_446'
p152
aS'Code_450'
p153
aS'Code_454'
p154
aS'Code_458'
p155
aS'Code_462'
p156
aS'Code_466'
p157
aS'Code_470'
p158
aS'Code_474'
p159
aS'Code_478'
p160
aS'Code_480'
p161
aS'Code_484'
p162
aS'Code_492'
p163
aS'Code_496'
p164
aS'Code_498'
p165
aS'Code_500'
p166
aS'Code_504'
p167
aS'Code_508'
p168
aS'Code_512'
p169
aS'Code_516'
p170
aS'Code_520'
p171
aS'Code_524'
p172
aS'Code_528'
p173
aS'Code_530'
p174
aS'Code_533'
p175
aS'Code_540'
p176
aS'Code_548'
p177
aS'Code_554'
p178
aS'Code_558'
p179
aS'Code_562'
p180
aS'Code_566'
p181
aS'Code_570'
p182
aS'Code_574'
p183
aS'Code_578'
p184
aS'Code_580'
p185
aS'Code_581'
p186
aS'Code_583'
p187
aS'Code_584'
p188
aS'Code_585'
p189
aS'Code_586'
p190
aS'Code_591'
p191
aS'Code_598'
p192
aS'Code_600'
p193
aS'Code_604'
p194
aS'Code_608'
p195
aS'Code_612'
p196
aS'Code_616'
p197
aS'Code_620'
p198
aS'Code_624'
p199
aS'Code_626'
p200
aS'Code_630'
p201
aS'Code_634'
p202
aS'Code_638'
p203
aS'Code_642'
p204
aS'Code_643'
p205
aS'Code_646'
p206
aS'Code_654'
p207
aS'Code_659'
p208
aS'Code_660'
p209
aS'Code_662'
p210
aS'Code_666'
p211
aS'Code_670'
p212
aS'Code_674'
p213
aS'Code_678'
p214
aS'Code_682'
p215
aS'Code_686'
p216
aS'Code_690'
p217
aS'Code_694'
p218
aS'Code_702'
p219
aS'Code_703'
p220
aS'Code_704'
p221
aS'Code_705'
p222
aS'Code_706'
p223
aS'Code_710'
p224
aS'Code_716'
p225
aS'Code_724'
p226
aS'Code_732'
p227
aS'Code_736'
p228
aS'Code_740'
p229
aS'Code_744'
p230
aS'Code_748'
p231
aS'Code_752'
p232
aS'Code_756'
p233
aS'Code_760'
p234
aS'Code_762'
p235
aS'Code_764'
p236
aS'Code_768'
p237
aS'Code_772'
p238
aS'Code_776'
p239
aS'Code_780'
p240
aS'Code_784'
p241
aS'Code_788'
p242
aS'Code_792'
p243
aS'Code_795'
p244
aS'Code_796'
p245
aS'Code_798'
p246
aS'Code_800'
p247
aS'Code_804'
p248
aS'Code_807'
p249
aS'Code_818'
p250
aS'Code_826'
p251
aS'Code_834'
p252
aS'Code_840'
p253
aS'Code_850'
p254
aS'Code_854'
p255
aS'Code_858'
p256
aS'Code_860'
p257
aS'Code_862'
p258
aS'Code_876'
p259
aS'Code_882'
p260
aS'Code_887'
p261
aS'Code_891'
p262
aS'Code_894'
p263
atp264
bsS'name'
p265
Nstp266
Rp267
.