ccopy_reg
_reconstructor
p0
(csklearn.linear_model.logistic
LogisticRegression
p1
c__builtin__
object
p2
Ntp3
Rp4
(dp5
S'warm_start'
p6
I00
sS'C'
p7
F1.0
sS'n_jobs'
p8
I1
sS'verbose'
p9
I0
sS'fit_intercept'
p10
I01
sS'solver'
p11
S'liblinear'
p12
sS'classes_'
p13
cnumpy.core.multiarray
_reconstruct
p14
(cnumpy
ndarray
p15
(I0
tp16
S'b'
p17
tp18
Rp19
(I1
(I2
tp20
cnumpy
dtype
p21
(S'i8'
p22
I0
I1
tp23
Rp24
(I3
S'<'
p25
NNNI-1
I-1
I0
tp26
bI00
S'\x00\x00\x00\x00\x00\x00\x00\x00\x01\x00\x00\x00\x00\x00\x00\x00'
p27
tp28
bsS'n_iter_'
p29
g14
(g15
(I0
tp30
g17
tp31
Rp32
(I1
(I1
tp33
g21
(S'i4'
p34
I0
I1
tp35
Rp36
(I3
S'<'
p37
NNNI-1
I-1
I0
tp38
bI00
S'\x03\x00\x00\x00'
p39
tp40
bsS'intercept_scaling'
p41
I1
sS'penalty'
p42
S'l2'
p43
sS'multi_class'
p44
S'ovr'
p45
sS'random_state'
p46
NsS'_sklearn_version'
p47
S'0.19.2'
p48
sS'dual'
p49
I00
sS'tol'
p50
F0.0001
sS'coef_'
p51
g14
(g15
(I0
tp52
g17
tp53
Rp54
(I1
(I1
I10
tp55
g21
(S'f8'
p56
I0
I1
tp57
Rp58
(I3
S'<'
p59
NNNI-1
I-1
I0
tp60
bI00
S'\x85\xa7\xb0R\xe0%\x00\xc0\x92\xdcR\x03\xd5\xbf\xcc?\xa81\xbb8\xfc#\xe8?\xe1\xbbj\xb7\x04\x0e\xe5\xbf<v\x89\x15\xf3\xfa\xa0\xbf\xf0\xedBN\xd0M\xd7?>\xa0y\xaaB\r\x8d?\xeb\xea\xf2\x80\x80]\xc3\xbft\x9c\x02C\xc8\x9b\xd2\xbf\x01X,\xb7E`\xd7\xbf'
p61
tp62
bsS'intercept_'
p63
g14
(g15
(I0
tp64
g17
tp65
Rp66
(I1
(I1
tp67
g58
I00
S'\x82\xba\x18\xf5\xf5\x03\xd9\xbf'
p68
tp69
bsS'max_iter'
p70
I100
sS'class_weight'
p71
Nsb.