ccopy_reg
_reconstructor
p0
(cpandas.core.frame
DataFrame
p1
c__builtin__
object
p2
Ntp3
Rp4
(dp5
S'_metadata'
p6
(lp7
sS'_typ'
p8
S'dataframe'
p9
sS'_data'
p10
g0
(cpandas.core.internals
BlockManager
p11
g2
Ntp12
Rp13
((lp14
cpandas.core.indexes.base
_new_Index
p15
(cpandas.core.indexes.base
Index
p16
(dp17
S'data'
p18
cnumpy.core.multiarray
_reconstruct
p19
(cnumpy
ndarray
p20
(I0
tp21
S'b'
p22
tp23
Rp24
(I1
(I13
tp25
cnumpy
dtype
p26
(S'O8'
p27
I0
I1
tp28
Rp29
(I3
S'|'
p30
NNNI-1
I-1
I63
tp31
bI00
(lp32
S'bday'
p33
aS'bio'
p34
aS'country'
p35
aS'isFam'
p36
aS'isPol'
p37
aS'midname'
p38
aS'money'
p39
aS'name'
p40
aS'profession'
p41
aS'surname'
p42
aS'traintext'
p43
aS'scorePolSimple'
p44
aS'scorePol'
p45
atp46
bsS'name'
p47
Nstp48
Rp49
ag15
(cpandas.core.indexes.numeric
Int64Index
p50
(dp51
g18
g19
(g20
(I0
tp52
g22
tp53
Rp54
(I1
(I190
tp55
g26
(S'i8'
p56
I0
I1
tp57
Rp58
(I3
S'<'
p59
NNNI-1
I-1
I0
tp60
bI00
S'\x00\x00\x00\x00\x00\x00\x00\x00\x02\x00\x00\x00\x00\x00\x00\x00\x04\x00\x00\x00\x00\x00\x00\x00\x05\x00\x00\x00\x00\x00\x00\x00\x07\x00\x00\x00\x00\x00\x00\x00\x0b\x00\x00\x00\x00\x00\x00\x00\x0f\x00\x00\x00\x00\x00\x00\x00\x19\x00\x00\x00\x00\x00\x00\x00\x1d\x00\x00\x00\x00\x00\x00\x00\'\x00\x00\x00\x00\x00\x00\x00)\x00\x00\x00\x00\x00\x00\x00-\x00\x00\x00\x00\x00\x00\x00/\x00\x00\x00\x00\x00\x00\x001\x00\x00\x00\x00\x00\x00\x003\x00\x00\x00\x00\x00\x00\x004\x00\x00\x00\x00\x00\x00\x005\x00\x00\x00\x00\x00\x00\x006\x00\x00\x00\x00\x00\x00\x007\x00\x00\x00\x00\x00\x00\x008\x00\x00\x00\x00\x00\x00\x00<\x00\x00\x00\x00\x00\x00\x00>\x00\x00\x00\x00\x00\x00\x00?\x00\x00\x00\x00\x00\x00\x00@\x00\x00\x00\x00\x00\x00\x00A\x00\x00\x00\x00\x00\x00\x00D\x00\x00\x00\x00\x00\x00\x00E\x00\x00\x00\x00\x00\x00\x00F\x00\x00\x00\x00\x00\x00\x00H\x00\x00\x00\x00\x00\x00\x00J\x00\x00\x00\x00\x00\x00\x00M\x00\x00\x00\x00\x00\x00\x00Q\x00\x00\x00\x00\x00\x00\x00R\x00\x00\x00\x00\x00\x00\x00X\x00\x00\x00\x00\x00\x00\x00Z\x00\x00\x00\x00\x00\x00\x00[\x00\x00\x00\x00\x00\x00\x00]\x00\x00\x00\x00\x00\x00\x00^\x00\x00\x00\x00\x00\x00\x00a\x00\x00\x00\x00\x00\x00\x00e\x00\x00\x00\x00\x00\x00\x00f\x00\x00\x00\x00\x00\x00\x00k\x00\x00\x00\x00\x00\x00\x00n\x00\x00\x00\x00\x00\x00\x00t\x00\x00\x00\x00\x00\x00\x00x\x00\x00\x00\x00\x00\x00\x00y\x00\x00\x00\x00\x00\x00\x00z\x00\x00\x00\x00\x00\x00\x00|\x00\x00\x00\x00\x00\x00\x00~\x00\x00\x00\x00\x00\x00\x00\x7f\x00\x00\x00\x00\x00\x00\x00\x83\x00\x00\x00\x00\x00\x00\x00\x84\x00\x00\x00\x00\x00\x00\x00\x85\x00\x00\x00\x00\x00\x00\x00\x89\x00\x00\x00\x00\x00\x00\x00\x8c\x00\x00\x00\x00\x00\x00\x00\x8e\x00\x00\x00\x00\x00\x00\x00\x8f\x00\x00\x00\x00\x00\x00\x00\x90\x00\x00\x00\x00\x00\x00\x00\x91\x00\x00\x00\x00\x00\x00\x00\x94\x00\x00\x00\x00\x00\x00\x00\x96\x00\x00\x00\x00\x00\x00\x00\x9a\x00\x00\x00\x00\x00\x00\x00\x9b\x00\x00\x00\x00\x00\x00\x00\x9d\x00\x00\x00\x00\x00\x00\x00\x9f\x00\x00\x00\x00\x00\x00\x00\xa2\x00\x00\x00\x00\x00\x00\x00\xa3\x00\x00\x00\x00\x00\x00\x00\xa5\x00\x00\x00\x00\x00\x00\x00\xa8\x00\x00\x00\x00\x00\x00\x00\xac\x00\x00\x00\x00\x00\x00\x00\xad\x00\x00\x00\x00\x00\x00\x00\xae\x00\x00\x00\x00\x00\x00\x00\xb9\x00\x00\x00\x00\x00\x00\x00\xbb\x00\x00\x00\x00\x00\x00\x00\x01\x00\x00\x00\x00\x00\x00\x00\x03\x00\x00\x00\x00\x00\x00\x00\x06\x00\x00\x00\x00\x00\x00\x00\x08\x00\x00\x00\x00\x00\x00\x00\t\x00\x00\x00\x00\x00\x00\x00\n\x00\x00\x00\x00\x00\x00\x00\x0c\x00\x00\x00\x00\x00\x00\x00\r\x00\x00\x00\x00\x00\x00\x00\x0e\x00\x00\x00\x00\x00\x00\x00\x10\x00\x00\x00\x00\x00\x00\x00\x11\x00\x00\x00\x00\x00\x00\x00\x12\x00\x00\x00\x00\x00\x00\x00\x13\x00\x00\x00\x00\x00\x00\x00\x14\x00\x00\x00\x00\x00\x00\x00\x15\x00\x00\x00\x00\x00\x00\x00\x16\x00\x00\x00\x00\x00\x00\x00\x17\x00\x00\x00\x00\x00\x00\x00\x18\x00\x00\x00\x00\x00\x00\x00\x1a\x00\x00\x00\x00\x00\x00\x00\x1b\x00\x00\x00\x00\x00\x00\x00\x1c\x00\x00\x00\x00\x00\x00\x00\x1e\x00\x00\x00\x00\x00\x00\x00\x1f\x00\x00\x00\x00\x00\x00\x00 \x00\x00\x00\x00\x00\x00\x00!\x00\x00\x00\x00\x00\x00\x00"\x00\x00\x00\x00\x00\x00\x00#\x00\x00\x00\x00\x00\x00\x00$\x00\x00\x00\x00\x00\x00\x00%\x00\x00\x00\x00\x00\x00\x00&\x00\x00\x00\x00\x00\x00\x00(\x00\x00\x00\x00\x00\x00\x00*\x00\x00\x00\x00\x00\x00\x00+\x00\x00\x00\x00\x00\x00\x00,\x00\x00\x00\x00\x00\x00\x00.\x00\x00\x00\x00\x00\x00\x000\x00\x00\x00\x00\x00\x00\x002\x00\x00\x00\x00\x00\x00\x009\x00\x00\x00\x00\x00\x00\x00:\x00\x00\x00\x00\x00\x00\x00;\x00\x00\x00\x00\x00\x00\x00=\x00\x00\x00\x00\x00\x00\x00B\x00\x00\x00\x00\x00\x00\x00C\x00\x00\x00\x00\x00\x00\x00G\x00\x00\x00\x00\x00\x00\x00I\x00\x00\x00\x00\x00\x00\x00K\x00\x00\x00\x00\x00\x00\x00L\x00\x00\x00\x00\x00\x00\x00N\x00\x00\x00\x00\x00\x00\x00O\x00\x00\x00\x00\x00\x00\x00P\x00\x00\x00\x00\x00\x00\x00S\x00\x00\x00\x00\x00\x00\x00T\x00\x00\x00\x00\x00\x00\x00U\x00\x00\x00\x00\x00\x00\x00V\x00\x00\x00\x00\x00\x00\x00W\x00\x00\x00\x00\x00\x00\x00Y\x00\x00\x00\x00\x00\x00\x00\\\x00\x00\x00\x00\x00\x00\x00_\x00\x00\x00\x00\x00\x00\x00`\x00\x00\x00\x00\x00\x00\x00b\x00\x00\x00\x00\x00\x00\x00c\x00\x00\x00\x00\x00\x00\x00d\x00\x00\x00\x00\x00\x00\x00g\x00\x00\x00\x00\x00\x00\x00h\x00\x00\x00\x00\x00\x00\x00i\x00\x00\x00\x00\x00\x00\x00j\x00\x00\x00\x00\x00\x00\x00l\x00\x00\x00\x00\x00\x00\x00m\x00\x00\x00\x00\x00\x00\x00o\x00\x00\x00\x00\x00\x00\x00p\x00\x00\x00\x00\x00\x00\x00q\x00\x00\x00\x00\x00\x00\x00r\x00\x00\x00\x00\x00\x00\x00s\x00\x00\x00\x00\x00\x00\x00u\x00\x00\x00\x00\x00\x00\x00v\x00\x00\x00\x00\x00\x00\x00w\x00\x00\x00\x00\x00\x00\x00{\x00\x00\x00\x00\x00\x00\x00}\x00\x00\x00\x00\x00\x00\x00\x80\x00\x00\x00\x00\x00\x00\x00\x81\x00\x00\x00\x00\x00\x00\x00\x82\x00\x00\x00\x00\x00\x00\x00\x86\x00\x00\x00\x00\x00\x00\x00\x87\x00\x00\x00\x00\x00\x00\x00\x88\x00\x00\x00\x00\x00\x00\x00\x8a\x00\x00\x00\x00\x00\x00\x00\x8b\x00\x00\x00\x00\x00\x00\x00\x8d\x00\x00\x00\x00\x00\x00\x00\x92\x00\x00\x00\x00\x00\x00\x00\x93\x00\x00\x00\x00\x00\x00\x00\x95\x00\x00\x00\x00\x00\x00\x00\x97\x00\x00\x00\x00\x00\x00\x00\x98\x00\x00\x00\x00\x00\x00\x00\x99\x00\x00\x00\x00\x00\x00\x00\x9c\x00\x00\x00\x00\x00\x00\x00\x9e\x00\x00\x00\x00\x00\x00\x00\xa0\x00\x00\x00\x00\x00\x00\x00\xa1\x00\x00\x00\x00\x00\x00\x00\xa4\x00\x00\x00\x00\x00\x00\x00\xa6\x00\x00\x00\x00\x00\x00\x00\xa7\x00\x00\x00\x00\x00\x00\x00\xa9\x00\x00\x00\x00\x00\x00\x00\xaa\x00\x00\x00\x00\x00\x00\x00\xab\x00\x00\x00\x00\x00\x00\x00\xaf\x00\x00\x00\x00\x00\x00\x00\xb0\x00\x00\x00\x00\x00\x00\x00\xb1\x00\x00\x00\x00\x00\x00\x00\xb2\x00\x00\x00\x00\x00\x00\x00\xb3\x00\x00\x00\x00\x00\x00\x00\xb4\x00\x00\x00\x00\x00\x00\x00\xb5\x00\x00\x00\x00\x00\x00\x00\xb6\x00\x00\x00\x00\x00\x00\x00\xb7\x00\x00\x00\x00\x00\x00\x00\xb8\x00\x00\x00\x00\x00\x00\x00\xba\x00\x00\x00\x00\x00\x00\x00\xbc\x00\x00\x00\x00\x00\x00\x00\xbd\x00\x00\x00\x00\x00\x00\x00'
p61
tp62
bsg47
Nstp63
Rp64
a(lp65
g19
(g20
(I0
tp66
g22
tp67
Rp68
(I1
(I3
I190
tp69
g29
I00
(lp70
V1956-10-01
p71
aS'NA'
p72
aV1936-09-29
p73
ag72
aV1926-08-13
p74
ag72
aV1966-10-09
p75
ag72
aV1893-12-26
p76
aV1918-07-18
p77
ag72
aV1925-06-29
p78
aV1913-01-09
p79
ag72
ag72
ag72
aV1937-04-28
p80
aV1946-06-14
p81
aV1955-02-14
p82
ag72
ag72
ag72
aV1949-02-14
p83
ag72
aV1977-12-21
p84
aV1975-01-11
p85
aV1954-07-17
p86
aV1952-10-07
p87
ag72
ag72
ag72
aV1874-11-30
p88
ag72
ag72
aV1983-01-08
p89
aV1961-08-04
p90
aV1923-05-27
p91
aV1917-11-19
p92
aV1973-03-09
p93
aV1972-04-09
p94
aV1929-08-24
p95
ag72
ag72
ag72
ag72
ag72
ag72
ag72
aV1947-07-30
p96
ag72
aV1946-07-06
p97
ag72
ag72
ag72
aV1971-12-25
p98
ag72
aV1949-04-20
p99
ag72
aV1879-11-07
p100
ag72
aV1911-02-06
p101
ag72
ag72
aV1986-07-06
p102
aV1977-08-22
p103
ag72
ag72
ag72
aV1966-08-20
p104
aV1925-10-13
p105
ag72
ag72
ag72
aV1917-05-29
p106
aV1986-06-03
p107
aV1939-04-07
p108
aV1964-01-07
p109
aV1966-04-22
p110
aV1961-05-06
p111
aV1960-08-17
p112
aV1947-09-21
p113
aV1955-03-19
p114
ag72
aV1989-07-23
p115
aV1972-09-27
p116
ag72
aV1945-03-23
p117
ag72
aV1974-11-11
p118
ag72
aS'No date found... sorry'
p119
aV1974-07-30
p120
aV1963-12-18
p121
ag72
ag72
aV1972-08-15
p122
aV1971-05-14
p123
ag72
aV1969-11-10
p124
aV1982-07-24
p125
aV1942-06-18
p126
aV1986-08-21
p127
ag72
ag72
ag72
aV1935-12-01
p128
aV1967-06-20
p129
aV1992-11-23
p130
aV1969-11-04
p131
aV1977-04-23
p132
ag72
ag72
aV1971-10-29
p133
ag72
ag72
aV1994-03-01
p134
aV1958-08-25
p135
ag72
ag72
ag72
aV1941-05-24
p136
aV1958-01-26
p137
aV1979-07-23
p138
aV1975-08-07
p139
aV1990-08-15
p140
ag72
aV1937-06-01
p141
aV1969-02-11
p142
aV1952-10-27
p143
aV1990-04-15
p144
aV1984-10-25
p145
aV1948-06-21
p146
aV1966-01-13
p147
aV1980-12-18
p148
ag72
aV1949-08-31
p149
ag72
aV1975-10-05
p150
ag72
ag72
aV1948-09-20
p151
aV1954-02-18
p152
ag72
aV1969-07-24
p153
aV1970-04-29
p154
aV1947-03-25
p155
aV1947-04-12
p156
aV1952-02-07
p157
ag72
aV1969-03-27
p158
aV1985-03-26
p159
aV1946-12-18
p160
ag72
aV1974-03-24
p161
ag72
ag72
ag72
aV1985-02-05
p162
aV1962-11-19
p163
aV1939-03-29
p164
aV1973-06-15
p165
aV1962-07-03
p166
aV1964-09-30
p167
aV1963-03-27
p168
ag72
ag72
aV1969-10-11
p169
ag72
ag72
ag72
aV1967-10-28
p170
aV1981-06-09
p171
aV1975-06-04
p172
aV1965-04-04
p173
ag72
ag72
aV1942-07-13
p174
ag72
ag72
aV1980-10-21
p175
ag72
aV1972-08-30
p176
aV1981-12-02
p177
ag72
aV1958-09-22
p178
aV1991-02-17
p179
ag72
aV1958-03-10
p180
aV1981-08-08
p181
aV1981-09-26
p182
aS'Theresa Mary May (</span>/</span></span>; n\xc3\xa9e\xc2\xa0Brasier; born 1 October 1956) is a British politician serving as Prime Minister of the United Kingdom and Leader of the Conservative Party since 2016. She served as Home Secretary from 2010 to 2016. May was first elected Member of Parliament (MP) for Maidenhead in 1997. Ideologically, she identifies herself as a one-nation conservative.\n'
p183
ag72
aS'Silvio Berlusconi (; born 29 September 1936) is an Italian media tycoon and politician who has served as Prime Minister of Italy in four governments.\n'
p184
ag72
aS'Fidel Alejandro Castro Ruz (; 13 August 1926 \xe2\x80\x93 25 November 2016) was a Cuban communist revolutionary and politician who governed the Republic of Cuba as Prime Minister from 1959 to 1976 and then as President from 1976 to 2008. A Marxist\xe2\x80\x93Leninist and Cuban nationalist, Castro also served as the First Secretary of the Communist Party of Cuba from 1961 until 2011. Under his administration, Cuba became a one-party communist state, while industry and business were nationalized and state socialist reforms were implemented throughout society.\n'
p185
ag72
aS'David William Donald Cameron (born 9 October 1966) is a British politician who served as Prime Minister of the United Kingdom from 2010 to 2016 and Leader of the Conservative Party from 2005 to 2016. He was Member of Parliament (MP) for Witney from 2001 to 2016. He identifies as a one-nation conservative, and has been associated with both economically liberal and socially liberal policies.\n'
p186
ag72
aS"Mao Zedong (December 26, 1893\xc2\xa0\xe2\x80\x93 September 9, 1976), also known as Chairman Mao, was a Chinese communist revolutionary who became the founding father of the People's Republic of China, which he ruled as the Chairman of the Communist Party of China from its establishment in 1949 until his death in 1976. His theories, military strategies, and political policies are collectively known as Maoism.\n"
p187
aS"Nelson Rolihlahla Mandela (</span>/</span></span>; ; 18 July 1918\xc2\xa0\xe2\x80\x93 5 December 2013) was a South African anti-apartheid revolutionary, political leader, and philanthropist who served as President of South Africa from 1994 to 1999. He was the country's first black head of state and the first elected in a fully representative democratic election. His government focused on dismantling the legacy of apartheid by tackling institutionalised racism and fostering racial reconciliation. Ideologically an African nationalist and socialist, he served as President of the African National Congress (ANC) party from 1991 to 1997.\n"
p188
ag72
aS'Giorgio Napolitano,  (; born 29 June 1925) is an Italian politician who served as the 11th President of the Republic from 2006 to 2015, the only Italian President to be reelected to the Presidency. Due to his dominant position in Italian politics, critics often refer to him as Re Giorgio ("King George"). He is the longest serving President in the history of the modern Italian Republic, which has been in existence since 1946.\n'
p189
aS'Richard Milhous Nixon (January 9, 1913 \xe2\x80\x93 April 22, 1994) was the 37th President of the United States from 1969 until 1974 and the only president to resign from the position. He had previously served as the 36th Vice President of the United States from 1953 to 1961, and prior to that as both a U.S. Representative and Senator from California.\n'
p190
ag72
ag72
ag72
aS'Saddam Hussein Abd al-Majid al-Tikriti (</span>/</span></span>; Arabic:  <i lang="ar-Latn" title="DIN 31635 Arabic (Arabic language) transliteration">\xe1\xb9\xa2add\xc4\x81m \xe1\xb8\xa4usayn \xca\xbfAbd al-Ma\xc7\xa7\xc4\xabd al-Tikr\xc4\xabt\xc4\xab; 28 April 1937\xc2\xa0\xe2\x80\x93 30 December 2006) was President of Iraq from 16 July 1979 until 9 April 2003. A leading member of the revolutionary Arab Socialist Ba\'ath Party, and later, the Baghdad-based Ba\'ath Party and its regional organization the Iraqi Ba\'ath Party\xe2\x80\x94which espoused Ba\'athism, a mix of Arab nationalism and socialism\xe2\x80\x94Saddam played a key role in the 1968 coup (later referred to as the 17 July Revolution) that brought the party to power in Iraq.\n'
p191
aS'Donald John Trump (born June 14, 1946) is the 45th and current President of the United States. Before entering politics, he was a businessman and television personality.\n'
p192
aS'Virginio Merola (born February 14, 1955 in Santa Maria Capua Vetere) is an Italian politician. Merola is a member of the Democratic Party and the current mayor of Bologna.\n'
p193
ag72
ag72
ag72
aS"Richard Edmund Neal (born February 14, 1949) is an American politician and the U.S. Representative for Massachusetts's 1st congressional district. He is a member of the Democratic Party and a former city councilor and mayor of Springfield, Massachusetts. He is currently the dean of the Massachusetts delegation to the House of Representatives.\n"
p194
ag72
aS'Emmanuel Jean-Michel Fr\xc3\xa9d\xc3\xa9ric Macron (; born 21 December 1977) is a French politician serving as President of France since 2017. He previously was Minister of the Economy, Industry and Digital Affairs from 2014 to 2016.\n'
p195
aS'Matteo Renzi (; born 11 January 1975) is an Italian politician who served as the Prime Minister of Italy from February 2014 until December 2016. After the rejection of his constitutional reform in the December 2016 referendum, Renzi formally resigned on 12 December when Foreign Affairs Minister Paolo Gentiloni was appointed new head of the government by President Sergio Mattarella. His government is the fourth longest one in the history of Italy as a republic. Renzi served as President of the Province of Florence from 2004 to 2009 and as Mayor of Florence from 2009 to 2014.\n'
p196
aS'Angela Dorothea Merkel (</span>/</span></span>; ; n\xc3\xa9e Kasner, born 17 July 1954) is a German politician serving as Chancellor of Germany since 2005 and leader of the centre-right Christian Democratic Union (CDU) since 2000. Merkel has been widely described as the de facto leader of the European Union, the most powerful woman in the world, and the leader of the Free World.\n'
p197
aS'Vladimir Vladimirovich Putin (</span>/</span></span>; Russian: , ; born 7 October 1952) is a Russian politician and former intelligence officer serving as President of Russia since 2012, previously holding the position from 2000 until 2008. In between his presidential terms he was also the Prime Minister of Russia under his close associate Dmitry Medvedev.\n'
p198
ag72
ag72
ag72
aS'Sir Winston Leonard Spencer-Churchill (30 November 1874\xc2\xa0\xe2\x80\x93 24 January 1965) was a British politician, statesman, army officer, and writer, who was Prime Minister of the United Kingdom from 1940 to 1945 and again from 1951 to 1955. As Prime Minister, Churchill led Britain to victory in the Second World War. Churchill represented five constituencies during his career as Member of Parliament (MP). Ideologically an economic liberal and British imperialist, he began and ended his parliamentary career as a member of the Conservative Party, which he led from 1940 to 1955, but for twenty years from 1904 he was a prominent member of the Liberal Party.\n'
p199
ag72
ag72
aS"Kim Jong-un (officially transcribed Kim Jong Un; Chos\xc5\x8fn'g\xc5\xadl:\xc2\xa0; ; born 8 January 1983) is a North Korean politician serving as Supreme Leader of North Korea since 2011 and Leader of the Workers' Party of Korea since 2012. Kim is the second child of Kim Jong-il (1941\xe2\x80\x932011) and Ko Yong-hui (1952\xe2\x80\x932004). The grandson of Kim Il-sung, the first leader of North Korea from 1948 to 1994, he is the first North Korean leader to have been born after the country's founding.\n"
p200
aS'Barack Hussein Obama II (</span> <wbr/></span> <wbr/></span>/</span></span>; born August 4, 1961) is an American politician who served as the 44th President of the United States from 2009 to 2017. A member of the Democratic Party, he was the first African American to be elected to the presidency and previously served as a United States Senator from Illinois (2005\xe2\x80\x932008).\n'
p201
aS'Henry Alfred Kissinger (</span>/</span></span>; ; born Heinz Alfred Kissinger; May 27, 1923) is an American statesman, political scientist, diplomat and geopolitical consultant who served as United States Secretary of State and National Security Advisor under the presidential administrations of Richard Nixon and Gerald Ford. A Jewish refugee who fled Nazi Germany with his family in 1938, he became National Security Advisor in 1969 and U.S. Secretary of State in 1973. For his actions negotiating a ceasefire in Vietnam, Kissinger received the 1973 Nobel Peace Prize under controversial circumstances, with two members of the committee resigning in protest. Kissinger later sought, unsuccessfully, to return the prize after the ceasefire failed.\n'
p202
aS'Indira Priyadarshini Gandhi (; n\xc3\xa9e Nehru; November 19, 1917 \xe2\x80\x93 October 31, 1984), was an Indian politician, stateswoman and a central figure of the Indian National Congress. She was the first and, to date, the only female Prime Minister of India. Indira Gandhi was the daughter of Jawaharlal Nehru, the first prime minister of India. Despite her surname Gandhi, she is not related to the family of Mahatma Gandhi; Gandhi is a common surname in Gujarat. She served as Prime Minister from January 1966 to March 1977 and again from January 1980 until her assassination in October 1984, making her the second longest-serving Indian Prime Minister after her father.\n'
p203
aS'Matteo Salvini (; born 9 March 1973) is an Italian politician serving as Deputy Prime Minister of Italy and Minister of the Interior since 1 June 2018. He has also been Federal Secretary of Northern League since December 2013 and the leader of Us with Salvini since December 2014. He has been a Senator in the Italian Senate since March 2018. He previously served as a Member of the European Parliament (MEP) for the constituency of North-West Italy from 2004 to 2018.\n'
p204
aS"Alain Berset (born 9 April 1972) is a Swiss politician of the Social Democratic Party. Since 1 January 2012, he is a member of the Swiss Federal Council, the seven member Swiss executive, and head of the Federal Department of Home Affairs (the Swiss interior minister). On 1 January 2018, he took office as President of the Swiss Confederation, head of the Federal Council; at age 45, Berset is the youngest President of the Confederation since Marcel Pilet-Golaz in 1934. Before being elected to the Federal Council in December 2011, he was a member of the Swiss Council of States for the Canton of Fribourg since 2003, serving as the chamber's president during the 2008/2009 term.\n"
p205
aS'Mohammed Yasser Abdel Rahman Abdel Raouf Arafat al-Qudwa al-Husseini (</span>, <wbr/></span>/</span></span>; Arabic: \xe2\x80\x8e\xe2\x80\x8e; 24 August 1929 \xe2\x80\x93 11 November 2004), popularly known as Yasser Arafat (Arabic: \xe2\x80\x8e\xc2\xa0, <i lang="ar-Latn" title="Arabic-language transliteration">Y\xc4\x81sir `Araf\xc4\x81t) or by his kunya Abu Ammar (Arabic: \xe2\x80\x8e\xc2\xa0, <i lang="ar-Latn" title="Arabic-language transliteration">\'Ab\xc5\xab `Amm\xc4\x81r), was a Palestinian political leader. He was Chairman of the Palestine Liberation Organization (PLO) from 1969 to 2004 and President of the Palestinian National Authority (PNA) from 1994 to 2004. Ideologically an Arab nationalist, he was a founding member of the Fatah political party, which he led from 1959 until 2004.\n'
p206
ag72
ag72
ag72
ag72
ag72
ag72
ag72
aS'Arnold Alois Schwarzenegger (</span>/</span></span>; ; born July 30, 1947) is an Austrian-American actor, filmmaker, businessman, investor, author, philanthropist, activist, politician, and former professional bodybuilder and powerlifter. He served two terms as the 38th Governor of California from 2003 to 2011.\n'
p207
ag72
aS'George Walker Bush (born July 6, 1946) is an American politician who served as the 43rd President of the United States from 2001 to 2009. He had previously served as the 46th Governor of Texas from 1995 to 2000.\n'
p208
ag72
ag72
ag72
aS'Justin Pierre James Trudeau  (</span>/</span></span>; ; born December 25, 1971) is a Canadian politician serving as the 23rd and current Prime Minister of Canada since 2015 and Leader of the Liberal Party since 2013. Trudeau is the second-youngest Canadian Prime Minister, after Joe Clark; he is also the first to be related to a previous holder of the post, as the eldest son of Pierre Trudeau.\n'
p209
ag72
aS"Massimo D'Alema (; born 20 April 1949) is an Italian politician who was the 53rd Prime Minister from 1998 to 2000. Later he was Deputy Prime Minister and Minister of Foreign Affairs from 2006 to 2008. He is also a journalist and served for a time as national secretary of the Democratic Party of the Left (PDS). \nSometimes media refers to him as Leader Maximo, due to his first name Massimo, but also for his dominant position in the left-wing coalitions during the Second Republic. Earlier in his career he was a member of the Italian Communist Party, and he was the first former communist to become prime minister of a NATO country.\n"
p210
ag72
aS'Leon Trotsky (</span>/</span></span>; born Lev Davidovich Bronstein; 7 November\xc2\xa0[O.S. 26 October]\xc2\xa01879 \xe2\x80\x93 21 August 1940) was a Russian revolutionary, Marxist theorist, and Soviet politician whose particular strain of Marxist thought is known as Trotskyism.\n'
p211
ag72
aS'Ronald Wilson Reagan (</span>/</span></span>; February 6, 1911\xc2\xa0\xe2\x80\x93 June 5, 2004) was an American politician and actor who served as the 40th President of the United States from 1981 to 1989. Prior to the presidency, he was a Hollywood actor and trade union leader before serving as the 33rd Governor of California from 1967 to 1975.\n'
p212
ag72
ag72
aS'Luigi Di Maio (; born 6 July 1986) is an Italian politician serving as Deputy Prime Minister of Italy and Minister of Economic Development, Labour and Social Policies since 1 June 2018. He previously served as Vice President of the Chamber of Deputies in the XVII Italian legislature. He is the leader of the Five Star Movement, an anti-establishment party founded by Beppe Grillo.\n'
p213
aS'Jonas Kocher is a musician and composer born in Nyon (Switzerland) in 1977. He is based in Biel/Bienne (Switzerland) since the late 1990s. \n'
p214
ag72
ag72
ag72
aS'Enrico Letta (; born 20 August 1966) is an Italian politician who was Prime Minister of Italy from 2013 to 2014, leading a grand coalition comprising the centre-left Democratic Party, the centre-right People of Freedom, and the centrist Civic Choice. He has also been a Member of the Chamber of Deputies since 2006. Letta was Minister of European Affairs from 1998 to 1999 and Minister of Industry from 1999 to 2001, and served as Secretary to the Council of Ministers from 2006 to 2008.\n'
p215
aS'Margaret Hilda Thatcher, Baroness Thatcher,  (n\xc3\xa9e\xc2\xa0Roberts; 13 October 1925\xc2\xa0\xe2\x80\x93 8 April 2013) was a British stateswoman who served as Prime Minister of the United Kingdom from 1979 to 1990 and Leader of the Conservative Party from 1975 to 1990. She was the longest-serving British prime minister of the 20th century and the first woman to hold that office. A Soviet journalist dubbed her "The \'Iron Lady", a nickname that became associated with her uncompromising politics and leadership style. As Prime Minister, she implemented policies known as Thatcherism.\n'
p216
ag72
ag72
ag72
aS'John Fitzgerald "Jack" Kennedy (May 29, 1917 \xe2\x80\x93 November 22, 1963), commonly referred to by his initials JFK, was an American politician who served as the 35th President of the United States from January 1961 until his assassination in November 1963. He served at the height of the Cold War, and the majority of his presidency dealt with managing relations with the Soviet Union. A member of the Democratic Party, Kennedy represented Massachusetts in the U.S. House of Representatives and Senate prior to becoming president.\n'
p217
aS"Rafael Nadal Parera (, ; born 3 June 1986) is a Spanish professional tennis player, currently world No. 2 in men's singles tennis by the Association of Tennis Professionals (ATP).\n"
p218
aS'Francis Ford Coppola (</span>/</span></span>; born April 7, 1939) is an American film director, producer, screenwriter and film composer. He was a central figure in the New Hollywood wave of filmmaking.\n'
p219
aS"Nicolas Kim Coppola (born January 7, 1964), known professionally as Nicolas Cage, is an American actor, director and producer. During his early career, Cage starred in a variety of films such as Valley Girl (1983), Racing with the Moon (1984), Birdy (1984), Peggy Sue Got Married (1986), Raising Arizona (1987), Moonstruck (1987), Vampire's Kiss (1989), Wild at Heart (1990), Fire Birds (1990), Honeymoon in Vegas (1992), and Red Rock West (1993).\n"
p220
aS"Jeffrey Dean Morgan (born April 22, 1966) is an American actor. He is known for his roles as John Winchester on the fantasy horror series Supernatural (2005\xe2\x80\x9307), Denny Duquette on the medical drama series Grey's Anatomy (2006\xe2\x80\x9309), The Comedian in the superhero film Watchmen (2009), Jason Crouse on the political drama series The Good Wife (2015\xe2\x80\x9316), Negan on the horror drama series The Walking Dead (2016\xe2\x80\x93present), and Harvey Russell in Rampage (2018).\n"
p221
aS'George Timothy Clooney (born May 6, 1961) is an American actor, filmmaker and businessman. He is the recipient of three Golden Globe Awards and two Academy Awards, one for acting in Syriana (2006) and the other for co-producing Argo (2012). In 2018, he was the recipient of the AFI Live Achievement Award, at the age of 57.\n'
p222
aS'Sean Justin Penn (born August 17, 1960) is an American actor and filmmaker. He has won two Academy Awards, for his roles in the mystery drama Mystic River (2003) and the biopic Milk (2008).\n'
p223
aS'Stephen Edwin King (born September 21, 1947) is an American author of horror, supernatural fiction, suspense, science fiction and fantasy. His books have sold more than 350 million copies, many of which have been adapted into feature films, miniseries, television series, and comic books. King has published 58 novels, including seven under the pen name Richard Bachman, and six non-fiction books. He has written around 200 short stories, most of which have been published in book collections.\n'
p224
aS'Walter Bruce Willis (born March 19, 1955) is an American actor, producer, and singer. Born to a German mother and American father in Idar-Oberstein, Germany, he moved to the United States with his family in 1957. His career began on the Off-Broadway stage in the 1970s. He later achieved fame with his leading role on the hit television series Moonlighting (1985\xe2\x80\x9389). He has since appeared in over 70 films and is widely regarded as an "action hero" due to his portrayal of John McClane in the Die Hard franchise (1988\xe2\x80\x932013), and other such roles.\n'
p225
ag72
aS'Daniel Jacob Radcliffe (born 23 July 1989) is an English actor and producer best known for his role as the titular protagonist in the Harry Potter film series, based on the novels by J. K. Rowling.\n'
p226
aS'Gwyneth Paltrow (</span>/</span></span>; born September 27, 1972) is an American actress, businesswoman, socialite, lifestyle guru, singer, and food writer. She has won various accolades, including an Academy Award, a Golden Globe Award, a Primetime Emmy Award and two Screen Actors Guild Awards.\n'
p227
ag72
aS'Francesco "Franco" Battiato (; born 23 March 1945, Ionia, Sicily) is an Italian singer-songwriter, composer, filmmaker and, under the pseudonym S\xc3\xbcphan Barzani, also a painter. Battiato\'s songs contain esoteric, philosophical and religious themes.\n'
p228
ag72
aS'Leonardo Wilhelm DiCaprio (</span>/</span></span>; born November 11, 1974) is an American actor, film producer, and environmentalist. DiCaprio began his career by appearing in television commercials in the late 1980s. He next had recurring roles in various television series, such as the soap opera Santa Barbara and the sitcom Growing Pains.\n'
p229
ag72
aS'Suresh Singh Rawat is an Indian politician from the Bharatiya Janata Party and a  member of the Rajasthan Legislative Assembly representing the Pushkar Vidhan Sabha constituency of Rajasthan.\n'
p230
aS'Hilary Ann Swank (born July 30, 1974) is an American actress and producer. She has received two Academy Awards, two Golden Globe Awards, two Critics Choice Awards, and a Screen Actors Guild Award.\n'
p231
aS'William Bradley Pitt (born December 18, 1963) is an American actor and film producer. He has received multiple awards and nominations including an Academy Award as producer under his own company Plan B Entertainment.\n'
p232
ag72
ag72
aS'Benjamin G\xc3\xa9za Affleck-Boldt (born August 15, 1972) is an American actor and filmmaker. His accolades include two Academy Awards, three Golden Globe Awards, two BAFTA Awards, and two Screen Actors Guild Awards. He began his career as a child and starred in the PBS educational series The Voyage of the Mimi in 1984, before a second run in 1988. He later appeared in the independent coming-of-age comedy Dazed and Confused (1993) and various Kevin Smith films, including Chasing Amy (1997) and Dogma (1999). Affleck gained wider recognition when he and childhood friend Matt Damon won the Golden Globe and Academy Award for Best Original Screenplay for writing Good Will Hunting (1997), which they also starred in. He then established himself as a leading man in studio films, including the disaster drama Armageddon (1998), the romantic comedy Forces of Nature (1999), the war drama Pearl Harbor (2001), and the spy thriller The Sum of All Fears (2002).\n'
p233
aS'Sofia Carmina Coppola (</span>/</span></span>; born May 14, 1971) is an American screenwriter, director, producer, and former actress.\n'
p234
ag72
aS'Ellen Kathleen Pompeo (born November 10, 1969) is an American actress, director, and producer. She is one of the highest paid television actors, having signed a $20 million annual contract with the American Broadcasting Company in late 2017. She was honored with the 2007 Special Achievement in Entertaining by the National Italian American Foundation for her contributions to the entertainment industry.\n'
p235
aS'Anna Helene Paquin (</span>/</span></span> <i title="English pronunciation respelling">-win; born 24 July 1982) is a New Zealand-Canadian-American  actress. She was born in Manitoba and brought up in Wellington, New Zealand, before moving to Los Angeles during her youth. She completed a year at Columbia University before leaving to focus on her acting career. As a child, she played the role of Flora McGrath in Jane Campion\'s romantic drama film The Piano (1993), despite having had little acting experience. For her performance, she received the Academy Award for Best Supporting Actress at the age of 11, making her the second-youngest winner in Oscar history.\n'
p236
aS'Sir James Paul McCartney  (born 18 June 1942) is an English singer-songwriter, multi-instrumentalist, and composer. He gained worldwide fame as the bass guitarist and singer for the rock band the Beatles, widely considered the most popular and influential group in the history of popular music. His songwriting partnership with John Lennon remains the most successful in history. After the group disbanded in 1970, he pursued a solo career and formed the band Wings with his first wife, Linda, and Denny Laine.\n'
p237
aS'Usain St Leo Bolt  (</span>/</span></span>; born 21 August 1986) is a Jamaican retired sprinter and world record holder in the 100 metres, 200 metres and 4 \xc3\x97 100 metres relay. His reign as Olympic Games champion in all of these events spans three Olympics. Owing to his achievements and dominance in sprint competition, he is widely considered to be the greatest sprinter of all time.\n'
p238
ag72
ag72
ag72
aS'Heywood "Woody" Allen  (born Allan Stewart Konigsberg; December 1, 1935) is an American director, writer, actor, and comedian whose career spans more than six decades. He began his career as a comedy writer in the 1950s, writing jokes and scripts for television and publishing several books of short humor pieces. In the early 1960s, Allen began performing as a stand-up comedian, emphasizing monologues rather than traditional jokes. As a comedian, he developed the persona of an insecure, intellectual, fretful nebbish, which he maintains is quite different from his real-life personality. In 2004, Comedy Central ranked Allen fourth on a list of the 100 greatest stand-up comedians, while a UK survey ranked Allen as the third-greatest comedian.\n'
p239
aS'Nicole Mary Kidman  (born 20 June 1967) is an Australian actress and producer. She is the recipient of multiple awards, including an Academy Award, two Primetime Emmy Awards, five Golden Globe Awards, the Silver Bear for Best Actress, and a Cannes Film Festival special award.\n'
p240
aS'Miley Ray Cyrus (born Destiny Hope Cyrus; November 23, 1992) is an American singer, songwriter, and actress. After playing minor roles in the television series Doc and the film Big Fish in her childhood, she became a teen idol starring as the character Miley Stewart on the Disney Channel television series Hannah Montana in 2006. Her father Billy Ray Cyrus also starred on the series, which aired for four seasons until 2011.\n'
p241
aS"Matthew David McConaughey (</span>/</span></span>; born November 4, 1969)  is an American actor and producer. He first gained notice for his breakout role in the coming-of-age comedy Dazed and Confused (1993), before going on to appear in the slasher film Texas Chainsaw Massacre: The Next Generation (1994), A Time to Kill (1996), the comedy film Larger than Life (1996), Steven Spielberg's historical drama Amistad (1997), the science fiction drama Contact (1997), the comedy EDtv (1999), and the war film U-571 (2000).\n"
p242
aS"John William Oliver (born 23 April 1977) is an English comedian, writer, producer, political commentator, actor, and television host. Oliver started his career as a stand-up comedian, both in the United Kingdom and United States. He came to wider attention for his work on The Daily Show with Jon Stewart as its senior British correspondent from 2006 to 2013. Oliver won three Primetime Emmy Awards for his work as a writer on The Daily Show and was its guest host for an eight-week period in 2013. In addition to The Daily Show, Oliver co-hosted the satirical comedy podcast The Bugle (2007\xe2\x80\x932015) with Andy Zaltzman, with whom Oliver had previously co-hosted the radio series Political Animal, and hosted John Oliver's New York Stand-Up Show on Comedy Central from 2010 to 2013. He has also acted on television, most notably in a recurring role as Ian Duncan on the NBC sitcom Community.\n"
p243
ag72
ag72
aS"Winona Ryder (born Winona Laura Horowitz; October 29, 1971) is an American actress and film producer. One of the most successful and iconic actresses of the 1990s, she made her film debut in  Lucas (1986). As Lydia Deetz, a goth teenager in Tim Burton's Beetlejuice (1988), she garnered critical acclaim and widespread recognition. After appearances in film and on television, Ryder continued her acting career with the cult film Heathers (1988), a controversial satire that has since become a landmark teen film. She later appeared in the coming of age drama Mermaids (1990), earning a Golden Globe Award nomination, and in the same year appeared alongside Johnny Depp in Burton's dark fairy-tale Edward Scissorhands (1990), and shortly thereafter opposite Gary Oldman in Francis Ford Coppola's gothic horror romance Bram Stoker's Dracula (1992).\n"
p244
ag72
ag72
aS'Justin Drew Bieber (</span>/</span></span>; born March 1, 1994) is a Canadian singer-songwriter. After talent manager Scooter Braun discovered him through his YouTube videos covering songs in 2008 and he signed to RBMG, Bieber released his debut EP, My World, in late 2009. It was certified platinum in the US. He became the first artist to have seven songs from a debut record chart on the Billboard Hot 100. Bieber released his first full-length studio album, My World 2.0, in 2010. It debuted at number one in several countries, was certified triple platinum in the US, and contained his single "Baby".\n'
p245
aS"Timothy Walter Burton (born August 25, 1958) is an American film director, producer, artist, writer, and animator. He is known for his dark, gothic, and eccentric horror and fantasy films such as Beetlejuice (1988), Edward Scissorhands (1990), The Nightmare Before Christmas (1993), Ed Wood (1994), Sleepy Hollow (1999), Corpse Bride (2005), Sweeney Todd: The Demon Barber of Fleet Street (2007), Dark Shadows (2012), and Frankenweenie (2012). He is also known for blockbusters such as the adventure comedy Pee-wee's Big Adventure (1985), the superhero films Batman (1989) and its first sequel Batman Returns (1992), the sci-fi film Planet of the Apes (2001), the fantasy drama Big Fish (2003), the musical adventure film Charlie and the Chocolate Factory (2005), and the fantasy film Alice in Wonderland (2010).\n"
p246
ag72
ag72
ag72
aS'Bob Dylan (born Robert Allen Zimmerman, May 24, 1941) is an American singer-songwriter, author, and artist who has been an influential figure in popular music and culture for more than five decades. Much of his most celebrated work dates from the 1960s, when he became a reluctant "voice of a generation" with songs such as "Blowin\' in the Wind" and "The Times They Are a-Changin\'" which became anthems for the Civil Rights Movement and anti-war movement. In 1965, he controversially "went electric", branching out from his earlier work and alienating some fans of the American folk music revival, recording a six-minute single, "Like a Rolling Stone", which enlarged the scope of popular music.\n'
p247
aS'Ellen Lee DeGeneres (</span>/</span></span> <i title="English pronunciation respelling">d\xc9\x99--\xc9\x99r-\xc9\x99s; born January 26, 1958) is an American comedian, television host, actress, writer, producer, and LGBT activist. She starred in the popular sitcom Ellen from 1994 to 1998 and has hosted her syndicated TV talk show, The Ellen DeGeneres Show, since 2003.\n'
p248
aS'Alessandro Agostini (born 23 July 1979) is an Italian retired footballer who played as a defender.\n'
p249
aS'Charlize Theron (</span> <wbr/></span>/</span></span> <i title="English pronunciation respelling">shar- -\xc9\x99n; ; born 7 August 1975) is a South African-American actress and film producer. She is the recipient of several accolades, including an Academy Award, a Golden Globe Award, and the Silver Bear for Best Actress.\n'
p250
aS'Jennifer Shrader Lawrence (born August 15, 1990) is an American actress. Her films have grossed over $5.7 billion worldwide, and she was the highest-paid actress in the world in 2015 and 2016. Lawrence appeared in Time 100 most influential people in the world list in 2013 and in the Forbes Celebrity 100 list in 2014 and 2016.\n'
p251
ag72
aS'Morgan Freeman (born June 1, 1937) is an American actor, producer, and narrator. Freeman won an Academy Award in 2005 for Best Supporting Actor with Million Dollar Baby (2004), and he has received Oscar nominations for his performances in Street Smart (1987), Driving Miss Daisy (1989), The Shawshank Redemption (1994), and Invictus (2009). He has also won a Golden Globe Award and a Screen Actors Guild Award.\n'
p252
aS'Jennifer Joanna Aniston (born February 11, 1969) is an American actress, film producer, and businessperson. She is the daughter of Greek-born actor John Aniston and American actress Nancy Dow. Aniston gained worldwide recognition for portraying Rachel Green on the television sitcom Friends (1994\xe2\x80\x932004), a role which earned her a Primetime Emmy Award, a Golden Globe Award, and a Screen Actors Guild Award (SAG). The character was widely popular during the airing of the series and was later recognized as one of the greatest female characters in American television.\n'
p253
aS"Roberto Remigio Benigni,  (; born 27 October 1952) is an Italian actor, comedian, screenwriter and director.  He co-wrote, directed and acted in the 1997 film Life Is Beautiful, which won him the Academy Award for Best Actor at the 71st Oscars Ceremony. He also portrayed Inspector Clouseau's son in Son of the Pink Panther (1993) and has collaborated with filmmaker Jim Jarmusch in three of his films: Down by Law (1986), Night on Earth (1991) and Coffee and Cigarettes (2003).\n"
p254
aS'Emma Charlotte Duerre Watson (born 15 April 1990) is an English actress, model, and activist. Born in Paris and brought up in Oxfordshire, Watson attended the Dragon School and trained as an actress at the Oxford branch of Stagecoach Theatre Arts. As a child artist, she rose to prominence after landing her first professional acting role as Hermione Granger in the Harry Potter film series, having acted only in school plays previously. Watson appeared in all eight Harry Potter films from 2001 to 2011, earning worldwide fame, critical accolades, and around $60\xc2\xa0million.\n'
p255
aS'Katheryn Elizabeth Hudson (born October 25, 1984), known professionally as Katy Perry, is an American singer, songwriter, and television personality. After singing in church during her childhood, she pursued a career in gospel music as a teenager. Perry signed with Red Hill Records and released her debut studio album Katy Hudson under her birth name in 2001, which was commercially unsuccessful. She moved to Los Angeles the following year to venture into secular music after Red Hill ceased operations and she subsequently began working with producers Glen Ballard, Dr. Luke, and Max Martin. After adopting the stage name Katy Perry and being dropped by The Island Def Jam Music Group and Columbia Records, she signed a recording contract with Capitol Records in April 2007.\n'
p256
aS'Ian Russell McEwan  (born 21 June 1948) is an English novelist and screenwriter. In 2008, The Times featured him on their list of "The 50 greatest British writers since 1945" and The Daily Telegraph ranked him number 19 in their list of the "100 most powerful people in British culture".\n'
p257
aS'Patrick Galen Dempsey (born January 13, 1966) is a Scottish American actor, best known for his role as neurosurgeon Derek "McDreamy" Shepherd in Grey\'s Anatomy, starring with Ellen Pompeo (Dr. Meredith Grey). He saw early success as an actor, starring in a number of films in the 1980s, including Can\'t Buy Me Love (1987) and Loverboy (1989). In the 1990s, he mostly appeared in smaller roles in film, such as Outbreak (1995) and television, before landing a lead role in Sweet Home Alabama (2002), a surprise box office hit. He has since starred in other films, including Enchanted (2007), Made of Honor (2008), Valentine\'s Day (2010), Flypaper (2011), Freedom Writers (2007), Transformers: Dark of the Moon (2011), and Bridget Jones\'s Baby (2016).\n'
p258
aS"Christina Mar\xc3\xada Aguilera (; born December 18, 1980)  is an American singer, songwriter, actress and television personality. Her work has earned her five Grammy Awards, one Latin Grammy Award, and a star on the Hollywood Walk of Fame. She has sold more than 75 million records worldwide, making her one of the world's best-selling music artists. In 2009, she ranked at number 58 on Rolling Stones list of 100 Greatest Singers of All Time, thereby becoming the youngest and the only artist under 30 to be named. Billboard recognized her as the 20th most successful artist of the 2000s, and in 2013, Time included Aguilera on their annual list of the 100 most influential people in the world.\n"
p259
ag72
aS'Richard Tiffany Gere (IPA: </span>/</span></span>, pronunciation respelling: <i title="English pronunciation respelling">geer; born August 31, 1949) is an American actor. He began in films in the 1970s, playing a supporting role in Looking for Mr. Goodbar (1977) and a starring role in Days of Heaven (1978). He came to prominence with his role in the film American Gigolo (1980), which established him as a leading man and a sex symbol. He went on to star in many well-received films, including An Officer and a Gentleman (1982), The Cotton Club (1984), Pretty Woman (1990), Primal Fear (1996), Runaway Bride (1999), I\'m Not There (2007), Arbitrage (2012) and Norman: The Moderate Rise and Tragic Fall of a New York Fixer (2016). For portraying Billy Flynn in the Academy Award-winning musical Chicago (2002), he won a Golden Globe Award and a Screen Actors Guild Award as part of the cast.\n'
p260
ag72
aS'Kate Elizabeth Winslet,  (born 5 October 1975) is an English actress. She is particularly known for her work in period dramas and tragedies, and is often drawn to portraying troubled women. Winslet is the recipient of several accolades, including three British Academy Film Awards, and is among the few performers to have won Academy, Emmy, and Grammy Awards.\n'
p261
ag72
ag72
aS''
p262
aS'John Joseph Travolta (born February 18, 1954) is an American actor, film producer, dancer, singer and pilot. Travolta first became known in the 1970s, after appearing on the television series Welcome Back, Kotter (1975\xe2\x80\x931979) and starring in the box office successes Saturday Night Fever (1977) and Grease (1978). His acting career declined through the 1980s, but enjoyed a resurgence in the 1990s with his role in Pulp Fiction (1994), and he has since starred in films such as Get Shorty, Broken Arrow, Face/Off, Swordfish, Be Cool, Wild Hogs, Hairspray, and The Taking of Pelham 123.\n'
p263
ag72
aS'Jennifer Lynn Lopez (born July 24, 1969) is an American singer, actress, dancer and producer. In 1991, Lopez began appearing as a Fly Girl dancer on In Living Color, where she remained a regular until she decided to pursue an acting career in 1993. For her first leading role in the 1997 Selena biopic of the same name, Lopez received a Golden Globe nomination and became the first Latin actress to earn over US$1 million for a film. She went on to star in Anaconda (1997) and Out of Sight (1998), later establishing herself as the highest-paid Latin actress in Hollywood.\n'
p264
aS"Uma Karuna Thurman (born April 29, 1970) is an American actress and model. She has performed in a variety of films, ranging from romantic comedies and dramas to science fiction and action movies. Following her appearances on the December 1985 and May 1986 covers of British Vogue, Thurman starred in Dangerous Liaisons (1988).  She rose to international prominence with her performance in Pulp Fiction (1994), for which she was nominated for the Academy Award, the BAFTA Award, and the Golden Globe Award for Best Supporting Actress. Often hailed as Quentin Tarantino's muse, she reunited with the director to play the main role in both Kill Bill films (2003\xe2\x80\x932004), which brought her two additional Golden Globe Award nominations.\n"
p265
aS'Sir Elton Hercules John  (born Reginald Kenneth Dwight, 25 March 1947) is an English singer, pianist, and composer. He has worked with lyricist Bernie Taupin as his songwriting partner since 1967; they have collaborated on more than 30 albums. John has sold more than 300million records, making him one of the best-selling music artists in the world. He has more than fifty Top 40 hits, including seven consecutive number one albums in the U.S., 58 Billboard Top 40 singles, 27 Top 10, four which reached number two and nine which reached number one. His tribute single "Candle in the Wind 1997", rewritten in dedication to Diana, Princess of Wales, sold over 33million copies worldwide and is the best-selling single in the history of the UK and U.S. singles charts. He has also composed music, produced records, and has occasionally acted in films.\n'
p266
aS"David Michael Letterman (born April 12, 1947) is an American television host, comedian, writer, and producer. He hosted late night television talk shows for 33 years, beginning with the February 1, 1982, debut of Late Night with David Letterman on NBC, and ending with the May 20, 2015, broadcast of Late Show with David Letterman on CBS. In total, Letterman hosted 6,028 episodes of Late Night and Late Show, surpassing friend and mentor Johnny Carson as the longest-serving late night talk show host in American television history. In 1996 Letterman was ranked 45th on TV Guides 50 Greatest TV Stars of All Time. In 2002, The Late Show with David Letterman was ranked seventh on TV Guide's 50 Greatest TV Shows of All Time.\n"
p267
aS'<br/>\nVasco Rossi (born 7 February 1952), also known as Vasco or with the nickname Il Blasco, is an Italian singer-songwriter. During his career, he has published 30 albums (not including unofficial releases) and has written over 250 songs, as well as lyrics for other artists.  He calls himself a "provoca(u)tore" (an Italian portmanteau for "provoking author") as throughout his career he has been regularly criticized over his choice of lifestyle and the lyrics in his songs. With more than 35 millions of copies sold, he is one of the best-selling Italian singers.\n'
p268
ag72
aS'Mariah Carey (born March 27, 1969 or 1970) is an American singer and songwriter. Referred to as the "Songbird Supreme" by the Guinness World Records, she is noted for her five-octave vocal range, power, melismatic style, and signature use of the whistle register. She rose to superstardom in 1990 after signing to Columbia Records and releasing her eponymous debut album, which peaked atop the Billboard 200. Carey became the first and only artist to have their first five singles reach number-one on the U.S. Billboard Hot 100 chart, from "Vision of Love" to "Emotions".\n'
p269
aS'Keira Christina Knightley  (born 26 March 1985) is an English actress. She has worked in the British and American film industries, and has starred in Broadway and West End theatre productions. She has won an Empire Award and multiple nominations for British Academy, Golden Globe, and Academy Awards.\n'
p270
aS'Steven Allan Spielberg   (born December 18, 1946) is an American filmmaker. He is considered one of the founding pioneers of the New Hollywood era and one of the most popular directors and producers in film history.\n'
p271
ag72
aS'Alyson Lee Hannigan (born March 24, 1974) is an American actress. She is best known for her roles as Willow Rosenberg on the television series Buffy the Vampire Slayer (1997\xe2\x80\x932003), Lily Aldrin on the sitcom How I Met Your Mother (2005\xe2\x80\x932014), and Michelle Flaherty in the American Pie film series (1999\xe2\x80\x932012).\n'
p272
ag72
ag72
ag72
aS"Cristiano Ronaldo dos Santos Aveiro  (; born 5 February 1985) is a Portuguese professional footballer who plays as a forward for Italian club Juventus and the Portugal national team. Often considered the best player in the world and  regarded by many as one of the greatest players of all time, Ronaldo has a record-tying five Ballon d'Or awards, the most for a European player, and is the first player to win four European Golden Shoes. He has won 26 trophies in his career, including five league titles, five UEFA Champions League titles and one UEFA European Championship. A prolific goalscorer, Ronaldo holds the records for most official goals scored in Europe's top-five leagues (404), the UEFA Champions League (121), the UEFA European Championship (9), as well as those for most assists in the UEFA Champions League (34) and the UEFA European Championship (6). He has scored over 680 senior career goals for club and country.\n"
p273
aS'Alicia Christian "Jodie" Foster (born November 19, 1962) is an American actress, director, and producer. She has received two Academy Awards, three British Academy Film Awards, two Golden Globe Awards, a Screen Actors Guild Award and the Cecil B DeMille Award. For her work as a director, Foster has been nominated for two Directors Guild of America Awards and a Primetime Emmy Award.\n'
p274
aS'Terence Hill (born Mario Girotti; 29 March 1939) is an Italian actor, film director, screenwriter and film producer.\n'
p275
aS'Neil Patrick Harris (born June 15, 1973) is an American actor, writer, producer, comedian, magician, and singer. He is known primarily for his comedy roles on television and his dramatic and musical stage roles. On television, he is known for playing the title character on Doogie Howser, M.D. (1989\xe2\x80\x931993), Barney Stinson on How I Met Your Mother (2005\xe2\x80\x932014, for which he was nominated for four Emmy Awards), and  Count Olaf in A Series of Unfortunate Events (2017\xe2\x80\x93present).\n'
p276
ag262
aVMonica Anna Maria Bellucci (, born 30 September 1964) is an Italian actress and model. Bellucci began her career as a fashion model, modeling for the likes of Dolce & Gabbana and Dior, before making a transition to Italian films and later Hollywood films. She is often considered among the most beautiful women in the world.\u000a
p277
aS'Quentin Jerome Tarantino (</span>/</span></span>; born March 27, 1963) is an American director, writer, and actor. His films are characterized by nonlinear storylines; satirical subject matter; an aestheticization of violence; extended scenes of dialogue; ensemble casts consisting of established and lesser-known performers; references to popular culture and a wide variety of other films; soundtracks primarily containing songs and score pieces from the 1960s to the 1980s; and features of neo-noir film.\n'
p278
ag72
ag72
aS'Jury Dimitri Chechi Commendatore OMRI (; born 11 October 1969) is a retired Italian gymnast.\n'
p279
ag72
ag72
ag72
aS'Julia Fiona Roberts (born October 28, 1967) is an American actress and producer. She became a Hollywood star after headlining the romantic comedy Pretty Woman (1990), which grossed $464\xc2\xa0million worldwide. She has won three Golden Globe Awards (out of eight nominations) and has been nominated for four Academy Awards for her film acting, winning the Academy Award for Best Actress for her performance in Erin Brockovich (2000).\n'
p280
aS'Natalie Portman (born Neta-Lee Hershlag; June 9, 1981) is a film actress, producer, and director with dual Israeli and American citizenship. She is the recipient of various accolades, including an Academy Award and two Golden Globe Awards.\n'
p281
aS'Angelina Jolie (</span>/</span></span> <i title="English pronunciation respelling">joh-; born Angelina Jolie Voight, June 4, 1975) is an American actress, filmmaker, and humanitarian. She has received an Academy Award, two Screen Actors Guild Awards, and three Golden Globe Awards, and has been cited as Hollywood\'s highest-paid actress. Jolie made her screen debut as a child alongside her father, Jon Voight, in Lookin\' to Get Out (1982). Her film career began in earnest a decade later with the low-budget production Cyborg 2 (1993), followed by her first leading role in a major film, Hackers (1995). She starred in the critically acclaimed biographical cable films George Wallace (1997) and Gia (1998), and won an Academy Award for Best Supporting Actress for her performance in the drama Girl, Interrupted (1999).\n'
p282
aS"Robert John Downey Jr. (born April 4, 1965) is an American actor and singer. His career has included critical and popular success in his youth, followed by a period of substance abuse and legal difficulties, and a resurgence of commercial success in middle age. For three consecutive years from 2012 to 2015, Downey topped the Forbes list of Hollywood's highest-paid actors, making an estimated $80\xc2\xa0million in earnings between June 2014 and June 2015.\n"
p283
ag72
ag72
aS'Harrison Ford (born July 13, 1942) is an American actor, writer and film producer. He gained worldwide fame for his starring roles as Han Solo in the Star Wars film series and as the title character of the Indiana Jones film series. Five of his movies are within the 30 top-grossing movies of all time at the US box office (when adjusted for inflation). Ford is also known for playing Rick Deckard in the neo-noir dystopian science fiction film Blade Runner (1982) and its sequel Blade Runner 2049 (2017); John Book in the thriller Witness (1985), for which he was nominated for the Academy Award for Best Actor; and Jack Ryan in the action films Patriot Games (1992) and Clear and Present Danger (1994).\n'
p284
ag72
ag72
aS"Kimberly Noel Kardashian West (</span>/</span></span>; born October 21, 1980) is an American reality television personality, entrepreneur and socialite. Kardashian first gained media attention as a friend and stylist of Paris Hilton, but received wider notice after a 2003 sex tape with her former boyfriend Ray J was leaked in 2007. Later that year, she and her family began to appear in the E! reality television series Keeping Up with the Kardashians. Its success soon led to the creation of spin-offs including Kourtney and Kim Take New York and Kourtney and Khlo\xc3\xa9 Take Miami. Kardashian's personal life soon became subject to widespread media attention.\n"
p285
ag72
aS"Cameron Michelle Diaz (born August 30, 1972) is an American actress, producer, author, and fashion model. She has frequently appeared in comedies throughout her career, while also earning critical recognition in dramatic films. Her accolades include four Golden Globe Award nominations, three Screen Actors Guild Award nominations, and a  New York Film Critics Award. In 2013, she was named the highest-paid actress over 40 in Hollywood. As of  2018, the U.S. domestic box office grosses of Diaz's films total over $3 billion USD, with worldwide grosses surpassing $7 billion, making her the fifth highest-grossing U.S. domestic box office actress.\n"
p286
aS'Britney Jean Spears (born December 2, 1981) is an American singer, songwriter, dancer, and actress. Born in McComb, Mississippi, and raised in Kentwood, Louisiana, she appeared in stage productions and television series, before signing with Jive Records in 1997. Spears\'s first two studio albums, ...Baby One More Time (1999) and Oops!... I Did It Again (2000), were global successes and made her the best-selling teenage artist of all-time. Referred to as the "Princess of Pop", Spears was credited with influencing the revival of teen pop during the late 1990s and early 2000s.\n'
p287
ag72
aS'Andrea Bocelli,  (; born 22 September 1958) is an Italian singer, songwriter, and record producer. Celine Dion has said that "if God would have a singing voice, he must sound a lot like Andrea Bocelli," and David Foster, a record producer, often describes Bocelli\'s voice as the most beautiful in the world.\n'
p288
aS'Edward Christopher Sheeran,  (</span>/</span></span>; born 17 February 1991) is an English singer, songwriter, guitarist, record producer, and actor. Sheeran was born in Halifax, West Yorkshire, and raised in Framlingham, Suffolk. He attended the Academy of Contemporary Music in Guildford as an undergraduate from the age of 18 in 2009. In early 2011, Sheeran independently released the extended play, No. 5 Collaborations Project.\n'
p289
ag72
aS"Sharon Vonne Stone (born March 10, 1958) is an American actress, producer, and former fashion model. After modelling in television commercials and print advertisements, she made her film debut as an extra in Woody Allen's comedy-drama Stardust Memories (1980). Her first speaking part was in Wes Craven's horror film Deadly Blessing (1981), and throughout the 1980s, Stone went on to appear in films such as Irreconcilable Differences (1984), King Solomon's Mines (1985), Cold Steel (1987), and Above the Law (1988). She found mainstream prominence with her part in Paul Verhoeven's action film Total Recall (1990).\n"
p290
aS"Roger Federer (; born 8 August 1981) is a Swiss professional tennis player who is currently ranked world No. 3 in men's singles tennis by the Association of Tennis Professionals (ATP). Federer has won 20 Grand Slam singles titles\xe2\x80\x94the most in history for a male player\xe2\x80\x94and has held the world No. 1 spot in the ATP rankings for a record total of 310 weeks, including a record 237 consecutive weeks. After turning professional in 1998, he was continuously ranked in the top ten from October 2002 to November 2016. He re-entered the top ten following his victory at the 2017 Australian Open.\n"
p291
aS'Serena Jameka Williams (born September 26, 1981) is an American professional tennis player. The Women\'s Tennis Association (WTA) ranked her world No. 1 in singles on eight separate occasions between 2002 and 2017. She reached the No. 1 ranking for the first time on July 8, 2002. On her sixth occasion, she held the ranking for 186 consecutive weeks, tying the record set by Steffi Graf. In total, she has been No. 1 for 319 weeks, which ranks third in the "Open Era" among female players behind Graf and Martina Navratilova.\n'
p292
aS'BRITISH'
p293
ag72
aS'ITALIAN'
p294
ag72
aS'CUBAN'
p295
ag72
ag293
ag72
aS'CHINA'
p296
aS'SOUTH AFRICAN'
p297
ag72
ag294
aS'AMERICAN'
p298
ag72
ag72
ag72
aS'Iraqi'
p299
ag298
aS'Italian'
p300
ag72
ag72
ag72
ag298
ag72
aS'FRENCH'
p301
ag294
aS'GERMAN'
p302
aS'RUSSIAN'
p303
ag72
ag72
ag72
ag293
ag72
ag72
aS'NORTH KOREAN'
p304
ag298
ag298
aS'INDIAN'
p305
ag294
aS'SWISS'
p306
aS'Palestinian'
p307
ag72
ag72
ag72
ag72
ag72
ag72
ag72
ag298
ag72
ag298
ag72
ag72
ag72
aS'CANADIAN'
p308
ag72
ag294
ag72
ag303
ag72
ag298
ag72
ag72
ag294
ag306
ag72
ag72
ag72
ag294
ag293
ag72
ag72
ag72
ag298
aS'SPANISH'
p309
ag298
ag298
ag298
ag298
ag298
ag298
aS'American'
p310
ag72
aS'BRITISH'
p311
ag298
ag72
ag294
ag72
ag298
ag72
aS'Indian'
p312
ag298
aS'American'
p313
ag72
ag72
ag298
ag298
ag72
ag298
ag311
aS'British'
p314
aS'Jamaican'
p315
ag72
ag72
ag72
ag298
aS'AUSTRALIAN'
p316
ag298
ag298
ag311
ag72
ag72
ag298
ag72
ag72
ag308
aS'American'
p317
ag72
ag72
ag72
ag298
ag311
ag294
ag311
ag298
ag72
ag298
ag298
ag294
aS'British'
p318
ag298
aS'British'
p319
ag298
ag298
ag72
ag311
ag72
ag311
ag72
ag72
aS'American'
p320
ag298
ag72
ag298
ag298
ag311
ag298
ag294
ag72
ag298
ag311
ag298
ag72
ag298
ag72
ag72
ag72
aS'PORTUGUESE'
p321
aS'American'
p322
aS'Italian'
p323
ag298
aS'American'
p324
aS'Italian'
p325
ag298
ag72
ag72
ag294
ag72
ag72
ag72
ag298
ag298
ag311
ag298
ag72
ag72
ag298
ag72
ag72
ag298
ag72
ag298
ag298
ag72
ag294
ag311
ag72
ag298
ag306
ag298
atp326
bag19
(g20
(I0
tp327
g22
tp328
Rp329
(I1
(I2
I190
tp330
g26
(S'i8'
p331
I0
I1
tp332
Rp333
(I3
S'<'
p334
NNNI-1
I-1
I0
tp335
bI00
S'\x01\x00\x00\x00\x00\x00\x00\x00\x00\x00\x00\x00\x00\x00\x00\x00\x01\x00\x00\x00\x00\x00\x00\x00\x01\x00\x00\x00\x00\x00\x00\x00\x01\x00\x00\x00\x00\x00\x00\x00\x00\x00\x00\x00\x00\x00\x00\x00\x01\x00\x00\x00\x00\x00\x00\x00\x00\x00\x00\x00\x00\x00\x00\x00\x01\x00\x00\x00\x00\x00\x00\x00\x01\x00\x00\x00\x00\x00\x00\x00\x01\x00\x00\x00\x00\x00\x00\x00\x01\x00\x00\x00\x00\x00\x00\x00\x01\x00\x00\x00\x00\x00\x00\x00\x00\x00\x00\x00\x00\x00\x00\x00\x00\x00\x00\x00\x00\x00\x00\x00\x00\x00\x00\x00\x00\x00\x00\x00\x01\x00\x00\x00\x00\x00\x00\x00\x01\x00\x00\x00\x00\x00\x00\x00\x00\x00\x00\x00\x00\x00\x00\x00\x01\x00\x00\x00\x00\x00\x00\x00\x00\x00\x00\x00\x00\x00\x00\x00\x00\x00\x00\x00\x00\x00\x00\x00\x00\x00\x00\x00\x00\x00\x00\x00\x00\x00\x00\x00\x00\x00\x00\x00\x01\x00\x00\x00\x00\x00\x00\x00\x01\x00\x00\x00\x00\x00\x00\x00\x01\x00\x00\x00\x00\x00\x00\x00\x01\x00\x00\x00\x00\x00\x00\x00\x00\x00\x00\x00\x00\x00\x00\x00\x00\x00\x00\x00\x00\x00\x00\x00\x00\x00\x00\x00\x00\x00\x00\x00\x01\x00\x00\x00\x00\x00\x00\x00\x00\x00\x00\x00\x00\x00\x00\x00\x00\x00\x00\x00\x00\x00\x00\x00\x01\x00\x00\x00\x00\x00\x00\x00\x01\x00\x00\x00\x00\x00\x00\x00\x01\x00\x00\x00\x00\x00\x00\x00\x01\x00\x00\x00\x00\x00\x00\x00\x01\x00\x00\x00\x00\x00\x00\x00\x01\x00\x00\x00\x00\x00\x00\x00\x01\x00\x00\x00\x00\x00\x00\x00\x00\x00\x00\x00\x00\x00\x00\x00\x00\x00\x00\x00\x00\x00\x00\x00\x01\x00\x00\x00\x00\x00\x00\x00\x00\x00\x00\x00\x00\x00\x00\x00\x01\x00\x00\x00\x00\x00\x00\x00\x01\x00\x00\x00\x00\x00\x00\x00\x00\x00\x00\x00\x00\x00\x00\x00\x01\x00\x00\x00\x00\x00\x00\x00\x00\x00\x00\x00\x00\x00\x00\x00\x01\x00\x00\x00\x00\x00\x00\x00\x00\x00\x00\x00\x00\x00\x00\x00\x00\x00\x00\x00\x00\x00\x00\x00\x00\x00\x00\x00\x00\x00\x00\x00\x01\x00\x00\x00\x00\x00\x00\x00\x00\x00\x00\x00\x00\x00\x00\x00\x01\x00\x00\x00\x00\x00\x00\x00\x01\x00\x00\x00\x00\x00\x00\x00\x01\x00\x00\x00\x00\x00\x00\x00\x00\x00\x00\x00\x00\x00\x00\x00\x01\x00\x00\x00\x00\x00\x00\x00\x00\x00\x00\x00\x00\x00\x00\x00\x00\x00\x00\x00\x00\x00\x00\x00\x01\x00\x00\x00\x00\x00\x00\x00\x00\x00\x00\x00\x00\x00\x00\x00\x00\x00\x00\x00\x00\x00\x00\x00\x00\x00\x00\x00\x00\x00\x00\x00\x00\x00\x00\x00\x00\x00\x00\x00\x01\x00\x00\x00\x00\x00\x00\x00\x01\x00\x00\x00\x00\x00\x00\x00\x00\x00\x00\x00\x00\x00\x00\x00\x00\x00\x00\x00\x00\x00\x00\x00\x00\x00\x00\x00\x00\x00\x00\x00\x01\x00\x00\x00\x00\x00\x00\x00\x01\x00\x00\x00\x00\x00\x00\x00\x01\x00\x00\x00\x00\x00\x00\x00\x01\x00\x00\x00\x00\x00\x00\x00\x01\x00\x00\x00\x00\x00\x00\x00\x01\x00\x00\x00\x00\x00\x00\x00\x01\x00\x00\x00\x00\x00\x00\x00\x01\x00\x00\x00\x00\x00\x00\x00\x01\x00\x00\x00\x00\x00\x00\x00\x00\x00\x00\x00\x00\x00\x00\x00\x01\x00\x00\x00\x00\x00\x00\x00\x01\x00\x00\x00\x00\x00\x00\x00\x00\x00\x00\x00\x00\x00\x00\x00\x01\x00\x00\x00\x00\x00\x00\x00\x00\x00\x00\x00\x00\x00\x00\x00\x01\x00\x00\x00\x00\x00\x00\x00\x00\x00\x00\x00\x00\x00\x00\x00\x00\x00\x00\x00\x00\x00\x00\x00\x01\x00\x00\x00\x00\x00\x00\x00\x01\x00\x00\x00\x00\x00\x00\x00\x00\x00\x00\x00\x00\x00\x00\x00\x00\x00\x00\x00\x00\x00\x00\x00\x01\x00\x00\x00\x00\x00\x00\x00\x01\x00\x00\x00\x00\x00\x00\x00\x00\x00\x00\x00\x00\x00\x00\x00\x01\x00\x00\x00\x00\x00\x00\x00\x01\x00\x00\x00\x00\x00\x00\x00\x01\x00\x00\x00\x00\x00\x00\x00\x01\x00\x00\x00\x00\x00\x00\x00\x00\x00\x00\x00\x00\x00\x00\x00\x00\x00\x00\x00\x00\x00\x00\x00\x01\x00\x00\x00\x00\x00\x00\x00\x01\x00\x00\x00\x00\x00\x00\x00\x01\x00\x00\x00\x00\x00\x00\x00\x01\x00\x00\x00\x00\x00\x00\x00\x01\x00\x00\x00\x00\x00\x00\x00\x01\x00\x00\x00\x00\x00\x00\x00\x01\x00\x00\x00\x00\x00\x00\x00\x01\x00\x00\x00\x00\x00\x00\x00\x01\x00\x00\x00\x00\x00\x00\x00\x00\x00\x00\x00\x00\x00\x00\x00\x01\x00\x00\x00\x00\x00\x00\x00\x01\x00\x00\x00\x00\x00\x00\x00\x01\x00\x00\x00\x00\x00\x00\x00\x01\x00\x00\x00\x00\x00\x00\x00\x00\x00\x00\x00\x00\x00\x00\x00\x00\x00\x00\x00\x00\x00\x00\x00\x01\x00\x00\x00\x00\x00\x00\x00\x01\x00\x00\x00\x00\x00\x00\x00\x00\x00\x00\x00\x00\x00\x00\x00\x01\x00\x00\x00\x00\x00\x00\x00\x01\x00\x00\x00\x00\x00\x00\x00\x00\x00\x00\x00\x00\x00\x00\x00\x01\x00\x00\x00\x00\x00\x00\x00\x01\x00\x00\x00\x00\x00\x00\x00\x01\x00\x00\x00\x00\x00\x00\x00\x01\x00\x00\x00\x00\x00\x00\x00\x01\x00\x00\x00\x00\x00\x00\x00\x01\x00\x00\x00\x00\x00\x00\x00\x01\x00\x00\x00\x00\x00\x00\x00\x01\x00\x00\x00\x00\x00\x00\x00\x00\x00\x00\x00\x00\x00\x00\x00\x01\x00\x00\x00\x00\x00\x00\x00\x00\x00\x00\x00\x00\x00\x00\x00\x01\x00\x00\x00\x00\x00\x00\x00\x01\x00\x00\x00\x00\x00\x00\x00\x00\x00\x00\x00\x00\x00\x00\x00\x01\x00\x00\x00\x00\x00\x00\x00\x01\x00\x00\x00\x00\x00\x00\x00\x00\x00\x00\x00\x00\x00\x00\x00\x01\x00\x00\x00\x00\x00\x00\x00\x01\x00\x00\x00\x00\x00\x00\x00\x01\x00\x00\x00\x00\x00\x00\x00\x01\x00\x00\x00\x00\x00\x00\x00\x01\x00\x00\x00\x00\x00\x00\x00\x01\x00\x00\x00\x00\x00\x00\x00\x01\x00\x00\x00\x00\x00\x00\x00\x01\x00\x00\x00\x00\x00\x00\x00\x01\x00\x00\x00\x00\x00\x00\x00\x00\x00\x00\x00\x00\x00\x00\x00\x01\x00\x00\x00\x00\x00\x00\x00\x01\x00\x00\x00\x00\x00\x00\x00\x00\x00\x00\x00\x00\x00\x00\x00\x00\x00\x00\x00\x00\x00\x00\x00\x01\x00\x00\x00\x00\x00\x00\x00\x01\x00\x00\x00\x00\x00\x00\x00\x01\x00\x00\x00\x00\x00\x00\x00\x01\x00\x00\x00\x00\x00\x00\x00\x01\x00\x00\x00\x00\x00\x00\x00\x01\x00\x00\x00\x00\x00\x00\x00\x01\x00\x00\x00\x00\x00\x00\x00\x00\x00\x00\x00\x00\x00\x00\x00\x00\x00\x00\x00\x00\x00\x00\x00\x01\x00\x00\x00\x00\x00\x00\x00\x00\x00\x00\x00\x00\x00\x00\x00\x00\x00\x00\x00\x00\x00\x00\x00\x01\x00\x00\x00\x00\x00\x00\x00\x01\x00\x00\x00\x00\x00\x00\x00\x01\x00\x00\x00\x00\x00\x00\x00\x01\x00\x00\x00\x00\x00\x00\x00\x01\x00\x00\x00\x00\x00\x00\x00\x00\x00\x00\x00\x00\x00\x00\x00\x00\x00\x00\x00\x00\x00\x00\x00\x01\x00\x00\x00\x00\x00\x00\x00\x00\x00\x00\x00\x00\x00\x00\x00\x01\x00\x00\x00\x00\x00\x00\x00\x01\x00\x00\x00\x00\x00\x00\x00\x01\x00\x00\x00\x00\x00\x00\x00\x01\x00\x00\x00\x00\x00\x00\x00\x01\x00\x00\x00\x00\x00\x00\x00\x00\x00\x00\x00\x00\x00\x00\x00\x01\x00\x00\x00\x00\x00\x00\x00\x01\x00\x00\x00\x00\x00\x00\x00\x00\x00\x00\x00\x00\x00\x00\x00\x01\x00\x00\x00\x00\x00\x00\x00\x01\x00\x00\x00\x00\x00\x00\x00\x01\x00\x00\x00\x00\x00\x00\x00\x01\x00\x00\x00\x00\x00\x00\x00\x01\x00\x00\x00\x00\x00\x00\x00\x01\x00\x00\x00\x00\x00\x00\x00\x01\x00\x00\x00\x00\x00\x00\x00\x01\x00\x00\x00\x00\x00\x00\x00\x01\x00\x00\x00\x00\x00\x00\x00\x01\x00\x00\x00\x00\x00\x00\x00\x01\x00\x00\x00\x00\x00\x00\x00\x01\x00\x00\x00\x00\x00\x00\x00\x01\x00\x00\x00\x00\x00\x00\x00\x01\x00\x00\x00\x00\x00\x00\x00\x01\x00\x00\x00\x00\x00\x00\x00\x01\x00\x00\x00\x00\x00\x00\x00\x01\x00\x00\x00\x00\x00\x00\x00\x01\x00\x00\x00\x00\x00\x00\x00\x01\x00\x00\x00\x00\x00\x00\x00\x01\x00\x00\x00\x00\x00\x00\x00\x01\x00\x00\x00\x00\x00\x00\x00\x01\x00\x00\x00\x00\x00\x00\x00\x01\x00\x00\x00\x00\x00\x00\x00\x01\x00\x00\x00\x00\x00\x00\x00\x01\x00\x00\x00\x00\x00\x00\x00\x01\x00\x00\x00\x00\x00\x00\x00\x01\x00\x00\x00\x00\x00\x00\x00\x01\x00\x00\x00\x00\x00\x00\x00\x01\x00\x00\x00\x00\x00\x00\x00\x01\x00\x00\x00\x00\x00\x00\x00\x01\x00\x00\x00\x00\x00\x00\x00\x01\x00\x00\x00\x00\x00\x00\x00\x01\x00\x00\x00\x00\x00\x00\x00\x01\x00\x00\x00\x00\x00\x00\x00\x01\x00\x00\x00\x00\x00\x00\x00\x01\x00\x00\x00\x00\x00\x00\x00\x01\x00\x00\x00\x00\x00\x00\x00\x01\x00\x00\x00\x00\x00\x00\x00\x01\x00\x00\x00\x00\x00\x00\x00\x01\x00\x00\x00\x00\x00\x00\x00\x01\x00\x00\x00\x00\x00\x00\x00\x01\x00\x00\x00\x00\x00\x00\x00\x01\x00\x00\x00\x00\x00\x00\x00\x01\x00\x00\x00\x00\x00\x00\x00\x01\x00\x00\x00\x00\x00\x00\x00\x01\x00\x00\x00\x00\x00\x00\x00\x01\x00\x00\x00\x00\x00\x00\x00\x01\x00\x00\x00\x00\x00\x00\x00\x01\x00\x00\x00\x00\x00\x00\x00\x01\x00\x00\x00\x00\x00\x00\x00\x01\x00\x00\x00\x00\x00\x00\x00\x01\x00\x00\x00\x00\x00\x00\x00\x01\x00\x00\x00\x00\x00\x00\x00\x01\x00\x00\x00\x00\x00\x00\x00\x01\x00\x00\x00\x00\x00\x00\x00\x01\x00\x00\x00\x00\x00\x00\x00\x01\x00\x00\x00\x00\x00\x00\x00\x01\x00\x00\x00\x00\x00\x00\x00\x01\x00\x00\x00\x00\x00\x00\x00\x01\x00\x00\x00\x00\x00\x00\x00\x01\x00\x00\x00\x00\x00\x00\x00\x01\x00\x00\x00\x00\x00\x00\x00\x01\x00\x00\x00\x00\x00\x00\x00\x01\x00\x00\x00\x00\x00\x00\x00\x01\x00\x00\x00\x00\x00\x00\x00\x01\x00\x00\x00\x00\x00\x00\x00\x01\x00\x00\x00\x00\x00\x00\x00\x01\x00\x00\x00\x00\x00\x00\x00\x01\x00\x00\x00\x00\x00\x00\x00\x01\x00\x00\x00\x00\x00\x00\x00\x01\x00\x00\x00\x00\x00\x00\x00\x01\x00\x00\x00\x00\x00\x00\x00\x01\x00\x00\x00\x00\x00\x00\x00\x01\x00\x00\x00\x00\x00\x00\x00\x01\x00\x00\x00\x00\x00\x00\x00\x01\x00\x00\x00\x00\x00\x00\x00\x01\x00\x00\x00\x00\x00\x00\x00\x00\x00\x00\x00\x00\x00\x00\x00\x00\x00\x00\x00\x00\x00\x00\x00\x00\x00\x00\x00\x00\x00\x00\x00\x00\x00\x00\x00\x00\x00\x00\x00\x00\x00\x00\x00\x00\x00\x00\x00\x00\x00\x00\x00\x00\x00\x00\x00\x00\x00\x00\x00\x00\x00\x00\x00\x00\x00\x00\x00\x00\x00\x00\x00\x00\x00\x00\x00\x00\x00\x00\x00\x00\x00\x00\x00\x00\x00\x00\x00\x00\x00\x00\x00\x00\x00\x00\x00\x00\x00\x00\x00\x00\x00\x00\x00\x00\x00\x00\x00\x00\x00\x00\x00\x00\x00\x00\x00\x00\x00\x00\x00\x00\x00\x00\x00\x00\x00\x00\x00\x00\x00\x00\x00\x00\x00\x00\x00\x00\x00\x00\x00\x00\x00\x00\x00\x00\x00\x00\x00\x00\x00\x00\x00\x00\x00\x00\x00\x00\x00\x00\x00\x00\x00\x00\x00\x00\x00\x00\x00\x00\x00\x00\x00\x00\x00\x00\x00\x00\x00\x00\x00\x00\x00\x00\x00\x00\x00\x00\x00\x00\x00\x00\x00\x00\x00\x00\x00\x00\x00\x00\x00\x00\x00\x00\x00\x00\x00\x00\x00\x00\x00\x00\x00\x00\x00\x00\x00\x00\x00\x00\x00\x00\x00\x00\x00\x00\x00\x00\x00\x00\x00\x00\x00\x00\x00\x00\x00\x00\x00\x00\x00\x00\x00\x00\x00\x00\x00\x00\x00\x00\x00\x00\x00\x00\x00\x00\x00\x00\x00\x00\x00\x00\x00\x00\x00\x00\x00\x00\x00\x00\x00\x00\x00\x00\x00\x00\x00\x00\x00\x00\x00\x00\x00\x00\x00\x00\x00\x00\x00\x00\x00\x00\x00\x00\x00\x00\x00\x00\x00\x00\x00\x00\x00\x00\x00\x00\x00\x00\x00\x00\x00\x00\x00\x00\x00\x00\x00\x00\x00\x00\x00\x00\x00\x00\x00\x00\x00\x00\x00\x00\x00\x00\x00\x00\x00\x00\x00\x00\x00\x00\x00\x00\x00\x00\x00\x00\x00\x00\x00\x00\x00\x00\x00\x00\x00\x00\x00\x00\x00\x00\x00\x00\x00\x00\x00\x00\x00\x00\x00\x00\x00\x00\x00\x00\x00\x00\x00\x00\x00\x00\x00\x00\x00\x00\x00\x00\x00\x00\x00\x00\x00\x00\x00\x00\x00\x00\x00\x00\x00\x00\x00\x00\x00\x00\x00\x00\x00\x00\x00\x00\x00\x00\x00\x00\x00\x00\x00\x00\x00\x00\x00\x00\x00\x00\x00\x00\x00\x00\x00\x00\x00\x00\x00\x00\x00\x00\x00\x00\x00\x00\x00\x00\x00\x00\x00\x00\x00\x00\x00\x00\x00\x00\x00\x00\x00\x00\x00\x00\x00\x00\x00\x00\x00\x00\x00\x00\x00\x00\x00\x00\x00\x00\x00\x00\x00\x00\x00\x00\x00\x00\x00\x00\x00\x00\x00\x00\x00\x00\x00\x00\x00\x00\x00\x00\x00\x00\x00\x00\x00\x00\x00\x00\x00\x00\x00\x00\x00\x00\x00\x00\x00\x00\x00\x00\x00\x00\x00\x00\x00\x00\x00\x00\x00\x00\x00\x00\x00\x00\x00\x00\x00\x00\x00\x00\x00\x00\x00\x00\x00\x00\x00\x00\x00\x00\x00\x00\x00\x00\x00\x00\x00\x00\x00\x00\x00\x00\x00\x00\x00\x00\x00\x00\x00\x00\x00\x00\x00\x00\x00\x00\x00\x00\x00\x00\x00\x00\x00\x00\x00\x00\x00\x00\x00\x00\x00\x00\x00\x00\x00\x00\x00\x00\x00\x00\x00\x00\x00\x00\x00\x00\x00\x00\x00\x00\x00\x00\x00\x00\x00\x00\x00\x00\x00\x00\x00\x00\x00\x00\x00\x00\x00\x00\x00\x00\x00\x00\x00\x00\x00\x00\x00\x00\x00\x00\x00\x00\x00\x00\x00\x00\x00\x00\x00\x00\x00\x00\x00\x00\x00\x00\x00\x00\x00\x00\x00\x00\x00\x00\x00\x00\x00\x00\x00\x00\x00\x00\x00\x00\x00\x00\x00\x00\x00\x00\x00\x00\x00\x00\x00\x00\x00\x00\x00\x00\x00\x00\x00\x00\x00\x00\x00\x00\x00\x00\x00\x00\x00\x00\x00\x00\x00\x00\x00\x00\x00\x00\x00\x00\x00\x00\x00\x00\x00\x00\x00\x00\x00\x00\x00\x00\x00\x00\x00\x00\x00\x00\x00\x00\x00\x00\x00\x00\x00\x00\x00\x00\x00\x00\x00\x00\x00\x00\x00\x00\x00\x00\x00\x00\x00\x00\x00\x00\x00\x00\x00\x00\x00\x00\x00\x00\x00\x00\x00\x00\x00\x00\x00\x00\x00\x00\x00\x00\x00\x00\x00\x00\x00\x00\x00\x00\x00\x00\x00\x00\x00\x00\x00\x00\x00\x00\x00\x00\x00\x00\x00\x00\x00\x00\x00\x00\x00\x00\x00\x00\x00\x00\x00\x00\x00\x00\x00\x00\x00\x00\x00\x00\x00\x00\x00\x00\x00\x00\x00\x00\x00\x00\x00\x00\x00\x00\x00\x00\x00\x00\x00\x00\x00\x00\x00\x00\x00\x00\x00\x00\x00\x00\x00\x00\x00\x00\x00\x00\x00\x00\x00\x00\x00\x00\x00\x00\x00\x00\x00\x00\x00\x00\x00\x00\x00\x00\x00\x00\x00\x00\x00\x00\x00\x00\x00\x00\x00\x00\x00\x00\x00\x00\x00\x00\x00\x00\x00\x00\x00\x00\x00\x00\x00\x00\x00\x00\x00\x00\x00\x00\x00\x00\x00\x00\x00\x00\x00\x00\x00\x00\x00\x00\x00\x00\x00\x00\x00\x00\x00\x00\x00\x00\x00\x00\x00\x00\x00\x00\x00\x00\x00\x00\x00'
p336
tp337
bag19
(g20
(I0
tp338
g22
tp339
Rp340
(I1
(I6
I190
tp341
g29
I00
(lp342
VMary
p343
ag72
aV
p344
ag72
aVAlejandro  Ruz
p345
ag72
aVWilliam Donald
p346
ag72
ag344
aVRolihlahla
p347
ag72
ag344
aVMilhous
p348
ag72
ag72
ag72
aVAbd al-Majid al-Tikriti
p349
aVJohn
p350
ag344
ag72
ag72
ag72
aVEdmund
p351
ag72
aVJean-Michel Frdric
p352
ag344
aVDorothea
p353
aVovich
p354
ag72
ag72
ag72
aVSir  Leonard Spencer-
p355
ag72
ag72
ag344
aVHussein  II
p356
aVAlfred
p357
aVPriyadarshini
p358
ag344
ag344
ag344
ag72
ag72
ag72
ag72
ag72
ag72
ag72
aVAlois
p359
ag72
aVWalker
p360
ag72
ag72
ag72
aVPierre James
p361
ag72
ag344
ag72
ag344
ag72
aVWilson
p362
ag72
ag72
ag344
ag344
ag72
ag72
ag72
ag344
aVHilda , Baroness
p363
ag72
ag72
ag72
aVFitzgerald "Jack"
p364
aVParera
p365
aVFord
p366
ag344
aVDean
p367
aVTimothy
p368
aVJustin
p369
aVEdwin
p370
aVWalter
p371
ag72
aVJacob
p372
ag344
ag72
aVFrancesco ""
p373
ag72
aVWilhelm
p374
ag72
aVSingh
p375
aVAnn
p376
aVWilliam ley
p377
ag72
ag72
aVjamin Gza -Boldt
p378
aVCarmina
p379
ag72
aVKathleen
p380
aVHelene
p381
aVSir James
p382
aVSt Leo
p383
ag72
ag72
ag72
aVHeywood ""
p384
aVMary
p385
aVRay
p386
aVDavid
p387
aVWilliam
p388
ag72
ag72
ag344
ag72
ag72
aVDrew
p389
aVothy Walter
p390
ag72
ag72
ag72
ag344
aVLee
p391
ag344
ag344
aVShrader
p392
ag72
ag344
aVJoanna
p393
aVRemigio
p394
aVCharlotte Duerre
p395
ag344
aVRussell
p396
aVGalen
p397
aVMara
p398
ag72
aVTiffany
p399
ag72
aVElizabeth
p400
ag72
ag72
aNaVJoseph
p401
ag72
aVLynn
p402
aVKaruna
p403
aVSir  Hercules
p404
aVMichael
p405
ag344
ag72
ag344
aVChristina
p406
aVAllan
p407
ag72
aVLee
p408
ag72
ag72
ag72
aVdos Santos Aveiro
p409
aVAlicia Christian ""
p410
ag344
aVPatrick
p411
aNaVAnna Maria
p412
aVJerome
p413
ag72
ag72
aVDimitri
p414
ag72
ag72
ag72
aVFiona
p415
ag344
aVVoight
p416
aVJohn  Jr.
p417
ag72
ag72
ag344
ag72
ag72
aVberly Noel  West
p418
ag72
aVMichelle
p419
aVJean
p420
ag72
ag344
aVward Christopher
p421
ag72
aVVonne
p422
ag344
aVJameka
p423
aF0.0
ag72
aF6600.0
ag72
aF0.0
ag72
aF0.0
ag72
aF0.0
aF0.0
ag72
aF0.0
aF0.0
ag72
ag72
ag72
aF0.0
aF3100.0
aF0.0
ag72
ag72
ag72
aF0.0
ag72
aF0.0
aF0.0
aF0.0
aF0.0
ag72
ag72
ag72
aF0.0
ag72
ag72
aF0.0
aF0.0
aF0.0
aF0.0
aF0.0
aF0.0
aF0.0
ag72
ag72
ag72
ag72
ag72
ag72
ag72
aF0.0
ag72
aF0.0
ag72
ag72
ag72
aF0.0
ag72
aF0.0
ag72
aF0.0
ag72
aF0.0
ag72
ag72
aF0.0
aF0.0
ag72
ag72
ag72
aF0.0
aF0.0
ag72
ag72
ag72
aF0.0
aF0.0
aF0.0
aF0.0
aF0.0
aF0.0
aF0.0
aF0.0
aF0.0
ag72
aF0.0
aF0.0
ag72
aF0.0
ag72
aF0.0
ag72
aF0.0
aF0.0
aF0.0
ag72
ag72
aF0.0
aF0.0
ag72
aF0.0
aF0.0
aF0.0
aF0.0
ag72
ag72
ag72
aF0.0
aF0.0
aF0.0
aF0.0
aF0.0
ag72
ag72
aF0.0
ag72
ag72
aF0.0
aF0.0
ag72
ag72
ag72
aF0.0
aF0.0
aF0.0
aF0.0
aF0.0
ag72
aF0.0
aF0.0
aF0.0
aF0.0
aF0.0
aF0.0
aF0.0
aF0.0
ag72
aF0.0
ag72
aF0.0
ag72
ag72
aF0.0
aF0.0
ag72
aF0.0
aF0.0
aF0.0
aF0.0
aF0.0
ag72
aF0.0
aF0.0
aF0.0
ag72
aF0.0
ag72
ag72
ag72
aF0.0
aF0.0
aF0.0
aF0.0
aF0.0
aF0.0
aF0.0
ag72
ag72
aF0.0
ag72
ag72
ag72
aF0.0
aF0.0
aF0.0
aF0.0
ag72
ag72
aF0.0
ag72
ag72
aF0.0
ag72
aF0.0
aF0.0
ag72
aF0.0
aF0.0
ag72
aF0.0
aF0.0
aF0.0
aS'Theresa'
p424
aS'Victor'
p425
aS'Silvio'
p426
aS'Abe'
p427
aS'Fidel'
p428
aS'Maria'
p429
aS'David'
p430
aS'Benedetta'
p431
aS'Mao'
p432
aS'Nelson'
p433
ag433
aS'Giorgio'
p434
aS'Richard'
p435
aS'Madeline'
p436
aS'Nicolas'
p437
aS'Vincent'
p438
aS'Saddam'
p439
aS'Donald'
p440
aS'Virginio'
p441
aS'Francois'
p442
aS'Sylvie'
p443
aS'Giovanni Battista'
p444
ag435
aS'Pascal'
p445
aS'Emmanuel'
p446
aS'Matteo'
p447
aS'Angela'
p448
aS'Vladimir'
p449
aS'Susanne'
p450
ag430
aS'Jean-Jacques'
p451
aS'Winston'
p452
aS'Christian'
p453
aS'Elise'
p454
aS'Kim'
p455
aS'Barack'
p456
aS'Henry'
p457
aS'Indira'
p458
ag447
aS'Alain'
p459
aS'Arafat'
p460
aS'Leo'
p461
aS'Dylan'
p462
aS'Suo Kyi'
p463
aS'Jacky'
p464
aS'Franklin'
p465
aS'Pepe'
p466
aS'Georges'
p467
aS'Arnold'
p468
aS'Franca'
p469
aS'George'
p470
aS'Riccardo'
p471
aS'Marco'
p472
aS'Nathalie'
p473
aS'Justin'
p474
aS'Anne-Catherine'
p475
aS'Massimo'
p476
aS'Pedro'
p477
aS'Leon'
p478
aS'Marta'
p479
aS'Ronald'
p480
aS'Giancarlo'
p481
aS'Philippe'
p482
aS'Luigi'
p483
aS'Jonas'
p484
aS'Chloe'
p485
aS'Melanie'
p486
aS'Thierry'
p487
aS'Enrico'
p488
aS'Margaret'
p489
aS'Gabriele'
p490
aS'Eric'
p491
aS'Yves'
p492
aS'John'
p493
aS'Rafael'
p494
aS'Francis'
p495
ag437
aS'Jeffrey'
p496
ag470
aS'Sean'
p497
aS'Stephen'
p498
aS'Bruce'
p499
aS'Ornella'
p500
aS'Daniel'
p501
aS'Gwyneth'
p502
aS'Celine'
p503
aS'Franco'
p504
aS'Graciela'
p505
aS'Leonardo'
p506
aS'Corinne'
p507
aS'Suresh'
p508
aS'Hilary'
p509
aS'Brad'
p510
aS'Anne'
p511
aS'Lewis'
p512
aS'Ben'
p513
aS'Sofia'
p514
aS'Daria'
p515
aS'Ellen'
p516
aS'Anna'
p517
aS'Paul'
p518
aS'Usain'
p519
aS'Ivan'
p520
ag429
aS'Laurie Blue'
p521
aS'Woody'
p522
aS'Nicole'
p523
aS'Miley'
p524
aS'Matthew'
p525
ag493
aS'Isabel '
p526
aS'Lorenzo'
p527
aS'Winona'
p528
aS'Ylva'
p529
aS'Giselle'
p530
ag474
aS'Tim'
p531
aS'Stefani Lady Gaga'
p532
aS'Marlene'
p533
aS'Daniele'
p534
aS'Bob'
p535
ag516
aS'Alessandro'
p536
aS'Charlize'
p537
aS'Jennifer'
p538
aS'Anne-Florence'
p539
aS'Morgan'
p540
ag538
aS'Roberto'
p541
aS'Emma'
p542
aS'Katy'
p543
aS'Ian'
p544
aS'Patrick'
p545
aS'Christina'
p546
aS'Monica'
p547
ag435
ag488
aS'Kate'
p548
aS'Tenzin'
p549
aS'Paola'
p550
aS'George R. R.'
p551
ag493
aS'Martina'
p552
ag538
aS'Uma'
p553
aS'Elton'
p554
ag430
aS'Vasco'
p555
aS'J.K.'
p556
aS'Mariah'
p557
aS'Keira'
p558
aS'Steven'
p559
aS'Rossella'
p560
aS'Alyson'
p561
aS'Marshall Bruce '
p562
aS'Florin'
p563
aS'Elena'
p564
aS'Ronaldo'
p565
aS'Jodie'
p566
aS'Terence'
p567
aS'Neil'
p568
aS'Tom'
p569
ag547
aS'Quentin'
p570
aS'Marcela'
p571
aS'Ursula'
p572
aS'Jury'
p573
ag550
aS'Nadim'
p574
aS'Sumner'
p575
aS'Julia'
p576
aS'Natalie'
p577
aS'Angelina'
p578
aS'Robert'
p579
aS'Catarina'
p580
ag541
aS'Harrison'
p581
aS'Federico'
p582
aS'Robyn'
p583
ag455
aS'Kate Isobelle'
p584
aS'Cameron'
p585
aS'Britney'
p586
aS'Aurelio'
p587
aS'Andrea'
p588
aS'Ed'
p589
aS'Luca'
p590
aS'Sharon'
p591
aS'Roger'
p592
aS'Serena'
p593
ag262
ag72
aVFounder & Owner of FininvestOwner of S.S. Monza 1912
p594
ag72
aS'Lawyer'
p595
ag72
ag262
ag72
ag262
aVActivist, Politician, Philanthropist, Lawyer
p596
ag72
ag262
ag262
ag72
ag72
ag72
ag262
aVPolitician, businessman, real estate developer
p597
aS'Politician'
p598
ag72
ag72
ag72
ag262
ag72
ag262
ag262
ag262
ag262
ag72
ag72
ag72
ag262
ag72
ag72
ag262
ag262
ag262
aS'Politician'
p599
ag262
ag262
aS'Civil engineer'
p600
ag72
ag72
ag72
ag72
ag72
ag72
ag72
ag262
ag72
aVBusinessman, politician
p601
ag72
ag72
ag72
aS'Teacher,Politician'
p602
ag72
ag262
ag72
ag262
ag72
aVActor, politician, sports commentator
p603
ag72
ag72
ag262
ag262
ag72
ag72
ag72
ag262
aVBarrister, company director, chemist, politician, statesman
p604
ag72
ag72
ag72
ag262
ag262
aS'Film director, screenwriter, film producer, film composer'
p605
aS'Actor, director, producer'
p606
aS'Actor'
p607
aS'Actor, screenwriter, producer with Smoke House Pictures, director'
p608
aS'Actor, filmmaker'
p609
aVWriter, actor, television producer, singer, musician
p610
aS'Actor, producer with Cheyenne Enterprises, singer'
p611
ag72
aVActor, producer
p612
aVActress, singer, writer
p613
ag72
ag262
ag72
aVActor, Appian Way Productions
p614
ag72
aS'Politician'
p615
aVActress, producer
p616
aVActor, film producer
p617
ag72
ag72
aVActor, filmmaker
p618
aVDirector, producer, screenwriter, actress
p619
ag72
aVActress, director, producer
p620
aS'Actress'
p621
aVSinger-songwriter, music and film producer, businessman
p622
ag262
ag72
ag72
ag72
aS'Director, writer, actor, comedian'
p623
aVActress, producer
p624
aVSinger, songwriter, actress
p625
aS'Actor, producer'
p626
ag262
ag72
ag72
aS'Actress'
p627
ag72
ag72
aVSinger, songwriter
p628
aS'Film director, film producer, writer, artist'
p629
ag72
ag72
ag72
aVSinger-songwriter, artist, writer
p630
ag262
ag262
aVActress, Producer
p631
aS'Actress'
p632
ag72
aS'Actor'
p633
aVActress, film producer, businessperson
p634
aVFilm director, screenwriter, actor, comedian
p635
aVActress, model, activist
p636
aVSinger, songwriter, actress, businesswoman, philanthropist, television judge
p637
aS'<td class="role" style="line-height:1.4em;">Novelist, screenwriter'
p638
aVActor, Race car driver
p639
aVSinger, songwriter, actress, television personality
p640
ag72
aVActor
p641
ag72
aS'Actress'
p642
ag72
ag72
aVNovelist, short story writer, screenwriter
p643
aS'Actor, producer, singer, dancer'
p644
ag72
aVSinger, actress, dancer, producer
p645
aVActress, model
p646
aVMusician, singer-songwriter, composer
p647
ag262
aS'singer'
p648
ag72
aVSinger, songwriter, actress, record producer
p649
aS'Actress'
p650
aS'Filmmaker'
p651
ag72
aVActress, television host
p652
ag72
ag72
ag72
ag262
aVActress, director, producer
p653
aS'Actor, film director, screenwriter, film producer'
p654
aVActor, writer, producer, comedian, magician, singer
p655
aS'Actor, producer'
p656
aS'Actress \xe2\x80\xa2 fashion model'
p657
aVDirector, writer, actor
p658
ag72
ag72
ag262
ag72
ag72
ag72
aS'Actress, producer'
p659
aVActress, film producer, director
p660
aVActress, filmmaker, activist
p661
aVActor, singer-songwriter
p662
ag72
ag72
aVActor, producer
p663
ag72
ag72
aVTelevision personality, socialite, actress, businesswoman, model
p664
ag72
aVActress, producer, model, author
p665
aVSinger, dancer, actress
p666
ag72
ag262
aVSinger, songwriter, record producer, guitarist, actor
p667
ag72
aS'Actress, model, film producer'
p668
ag262
ag262
aS'May'
p669
aS'Allamand'
p670
aS'Berlusconi'
p671
aS'Shinzo'
p672
aS'Castro'
p673
aS'Lopes'
p674
aS'Cameron'
p675
aS'Rossi'
p676
aS'Zedong'
p677
aS'Mandela'
p678
aS'Rockfeller'
p679
aS'Napolitano'
p680
aS'Nixon'
p681
aS'Donne'
p682
aS'Freymond'
p683
aS'Jaques'
p684
aS'Hussein'
p685
aS'Trump'
p686
aS'Merola'
p687
aS'Hollande'
p688
aS'Podio'
p689
aS'Di Natale'
p690
aS'Neal'
p691
aS'Golay'
p692
aS'Macron'
p693
aS'Renzi'
p694
aS'Merkel'
p695
aS'Putin'
p696
aS'Zaccaria'
p697
aS'Boulaz'
p698
aS'Aubert'
p699
aS'Churchill'
p700
aS'Burdet'
p701
aS'Buckle'
p702
aS'Jong-un'
p703
aS'Obama'
p704
aS'Kissinger'
p705
aS'Gandhi'
p706
aS'Salvini'
p707
aS'Berset'
p708
aS'Yasser'
p709
aS'Gaillard'
p710
aS'Montefusco'
p711
aS'Aung san'
p712
aS'Colomb'
p713
aS'Roosvelt'
p714
aS'Mujica'
p715
aS'Borer'
p716
aS'Schwarzenegger'
p717
aS'Filippini'
p718
aS'Bush'
p719
aS"Dall'Olio"
p720
aS'Carenza'
p721
aS'Jaccard'
p722
aS'Trudeau'
p723
aS'Aubert-Despland'
p724
aS"D'Alema"
p725
aS'Sanchez'
p726
aS'Trotsky'
p727
aS'Pinto'
p728
aS'Reagan'
p729
aS'Benaglia'
p730
aS'Deriaz'
p731
aS'Di Maio'
p732
aS'Kocher'
p733
aS'Besse'
p734
aS'Wyss'
p735
aS'Campiche'
p736
aS'Letta'
p737
aS'Thatcher'
p738
aS'Minghetti'
p739
aS'Zuger'
p740
aS'Felix'
p741
aS'Kennedy'
p742
aS'Nadal'
p743
aS'Coppola'
p744
aS'Cage'
p745
aS'Morgan'
p746
aS'Clooney'
p747
aS'Penn'
p748
aS'King'
p749
aS'Willis'
p750
aS'Di Pietro'
p751
aS'Radcliffe'
p752
aS'Paltrow'
p753
aS'Exquis'
p754
aS'Battiato'
p755
aS'Bermudez'
p756
aS'DiCaprio'
p757
aS'Bonvin'
p758
aS'Rawat'
p759
aS'Swank'
p760
aS'Pitt'
p761
aS'Bottani'
p762
aS'Armitage'
p763
aS'Affleck'
p764
ag744
aS'Arkhipova'
p765
aS'Pompeo'
p766
aS'Paquin'
p767
aS'McCartney'
p768
aS'Bolt'
p769
aS'Selva'
p770
aS'Borghesani'
p771
aS'Adkins'
p772
aS'Allen'
p773
aS'Kidman'
p774
aS'Cyrus'
p775
aS'McConaughey'
p776
aS'Oliver'
p777
aS'Mebarak Ripoll'
p778
aS'Cherubini'
p779
aS'Ryder'
p780
aS'Hellgren'
p781
aS'Knowles-Carter'
p782
aS'Bieber'
p783
aS'Burton'
p784
aS'Germanotta'
p785
aS'Simoes'
p786
aS'Frossard'
p787
aS'Dylan'
p788
aS'DeGeneres'
p789
aS'Agostini'
p790
aS'Theron'
p791
aS'Lawrence'
p792
aS'Bitbol'
p793
aS'Freeman'
p794
aS'Aniston'
p795
aS'Benigni'
p796
aS'Watson'
p797
aS'Perry'
p798
aS'McEwan'
p799
aS'Dempsey'
p800
aS'Aguilera'
p801
aS'Prodon'
p802
aS'Gere'
p803
aS'Tibaldi'
p804
aS'Winslet'
p805
aS'Gyatso'
p806
aS'Tofani'
p807
aS'Martin'
p808
aS'Travolta'
p809
aS'Merli'
p810
aS'Lopez'
p811
aS'Thurman'
p812
aS'John'
p813
aS'Letterman'
p814
ag676
aS'Rowling'
p815
aS'Carey'
p816
aS'Knightley'
p817
aS'Spielberg'
p818
aS'Tomasi'
p819
aS'Hannigan'
p820
aS'Mathers III'
p821
aS'Dinu'
p822
aS'Peta'
p823
aS'Cristiano'
p824
aS'Foster'
p825
aS'Hill'
p826
aS'Harris'
p827
aS'Cruise'
p828
aS'Bellucci'
p829
aS'Tarantino'
p830
aS'Rincon'
p831
aS'Utz'
p832
aS'Chechi'
p833
aS'Minelli'
p834
aS'Akhtar'
p835
aS'Gordon Matthew Thomas'
p836
aS'Roberts'
p837
aS'Portman'
p838
aS'Jolie'
p839
aS'Downey'
p840
aS'Barreira de Sousa'
p841
aS'Bertoni'
p842
aS'Ford'
p843
aS'Bellentani'
p844
aS'Fenty'
p845
aS'Kardashian'
p846
aS'Furler'
p847
aS'Diaz'
p848
aS'Spears'
p849
aS'Bay'
p850
aS'Bocelli'
p851
aS'Sheeran'
p852
aS'Pescatore'
p853
aS'Stone'
p854
aS'Federer'
p855
aS'Williams'
p856
aS'    is a British politician serving as Prime Minister of the United Kingdom and Leader of the Conservative Party since . She served as Home Secretary from  to .  was first elected Member of Parliament  for Maidenhead in . Ideologically, she identifies herself as a one-nation conservative.\n '
p857
aS' NA'
p858
aS'   is an Italian media tycoon and politician who has served as Prime Minister of Italy in four governments.\n Founder & Owner of FininvestOwner of S.S. Monza 1912'
p859
aS' NA'
p860
aS'   was a Cuban communist revolutionary and politician who governed the Republic of Cuba as Prime Minister from  to  and then as President from  to . A Marxist-Leninist and Cuban nationalist,  also served as the First Secretary of the Communist Party of Cuba from  until . Under his administration, Cuba became a one-party communist state, while industry and business were nationalized and state socialist reforms were implemented throughout society.\n Lawyer'
p861
aS' NA'
p862
aS'    is a British politician who served as Prime Minister of the United Kingdom from  to  and Leader of the Conservative Party from  to . He was Member of Parliament  for Witney from  to . He identifies as a one-nation conservative, and has been associated with both economically liberal and socially liberal policies.\n '
p863
aS' NA'
p864
aS"  , also known as Chairman , was a Chinese communist revolutionary who became the founding father of the People's Republic of China, which he ruled as the Chairman of the Communist Party of China from its establishment in  until his death in . His theories, military strategies, and political policies are collectively known as ism.\n "
p865
aS"    was a South African anti-apartheid revolutionary, political leader, and philanthropist who served as President of South Africa from  to . He was the country's first black head of state and the first elected in a fully representative democratic election. His government focused on dismantling the legacy of apartheid by tackling institutionalised racism and fostering racial reconciliation. Ideologically an African nationalist and socialist, he served as President of the African National Congress  party from  to .\n Activist, Politician, Philanthropist, Lawyer"
p866
aS' NA'
p867
aS' ,   is an Italian politician who served as the th President of the Republic from  to , the only Italian President to be reelected to the Presidency. Due to his dominant position in Italian politics, critics often refer to him as Re  . He is the longest serving President in the history of the modern Italian Republic, which has been in existence since .\n '
p868
aS'    was the th President of the United States from  until  and the only president to resign from the position. He had previously served as the th Vice President of the United States from  to , and prior to that as both a U.S. Representative and Senator from California.\n '
p869
aS' NA'
p870
aS' NA'
p871
aS' NA'
p872
aS'    transliteration"> Husayn \'Abd al-Magid al-Tikriti;  April  -  December ) was President of Iraq from  July  until  April . A leading member of the revolutionary Arab Socialist Ba\'ath Party, and later, the Baghdad-based Ba\'ath Party and its regional organization the Iraqi Ba\'ath Party--which espoused Ba\'athism, a mix of Arab nationalism and socialism-- played a key role in the  coup  that brought the party to power in Iraq.\n '
p873
aS'    is the th and current President of the United States. Before entering politics, he was a businessman and television personality.\n Politician, businessman, real estate developer'
p874
aS'   is an Italian politician.  is a member of the Democratic Party and the current mayor of Bologna.\n Politician'
p875
aS' NA'
p876
aS' NA'
p877
aS' NA'
p878
aS"    is an American politician and the U.S. Representative for Massachusetts's st congressional district. He is a member of the Democratic Party and a former city councilor and mayor of Springfield, Massachusetts. He is currently the dean of the Massachusetts delegation to the House of Representatives.\n "
p879
aS' NA'
p880
aS' Jean-Michel Frederic   is a French politician serving as President of France since . He previously was Minister of the Economy, Industry and Digital Affairs from  to .\n '
p881
aS'   is an Italian politician who served as the Prime Minister of Italy from February  until December . After the rejection of his constitutional reform in the December  referendum,  formally resigned on  December when Foreign Affairs Minister Paolo Gentiloni was appointed new head of the government by President Sergio Mattarella. His government is the fourth longest one in the history of Italy as a republic.  served as President of the Province of Florence from  to  and as Mayor of Florence from  to .\n '
p882
aS'    is a German politician serving as Chancellor of Germany since  and leader of the centre-right Christian Democratic Union  since .  has been widely described as the de facto leader of the European Union, the most powerful woman in the world, and the leader of the Free World.\n '
p883
aS'    is a Russian politician and former intelligence officer serving as President of Russia since , previously holding the position from  until . In between his presidential terms he was also the Prime Minister of Russia under his close associate Dmitry Medvedev.\n '
p884
aS' NA'
p885
aS' NA'
p886
aS' NA'
p887
aS'  was a British politician, statesman, army officer, and writer, who was Prime Minister of the United Kingdom from  to  and again from  to . As Prime Minister,  led Britain to victory in the Second World War.  represented five constituencies during his career as Member of Parliament . Ideologically an economic liberal and British imperialist, he began and ended his parliamentary career as a member of the Conservative Party, which he led from  to , but for twenty years from  he was a prominent member of the Liberal Party.\n '
p888
aS' NA'
p889
aS' NA'
p890
aS"   is a North Korean politician serving as Supreme Leader of North Korea since  and Leader of the Workers' Party of Korea since .  is the second child of  Jong-il  and Ko Yong-hui . The grandson of  Il-sung, the first leader of North Korea from  to , he is the first North Korean leader to have been born after the country's founding.\n "
p891
aS'   is an American politician who served as the th President of the United States from  to . A member of the Democratic Party, he was the first African American to be elected to the presidency and previously served as a United States Senator from Illinois .\n '
p892
aS'    is an American statesman, political scientist, diplomat and geopolitical consultant who served as United States Secretary of State and National Security Advisor under the presidential administrations of Richard Nixon and Gerald Ford. A Jewish refugee who fled Nazi Germany with his family in , he became National Security Advisor in  and U.S. Secretary of State in . For his actions negotiating a ceasefire in Vietnam,  received the  Nobel Peace Prize under controversial circumstances, with two members of the committee resigning in protest.  later sought, unsuccessfully, to return the prize after the ceasefire failed.\n '
p893
aS'   , was an Indian politician, stateswoman and a central figure of the Indian National Congress. She was the first and, to date, the only female Prime Minister of India.   was the daughter of Jawaharlal Nehru, the first prime minister of India. Despite her surname , she is not related to the family of Mahatma ;  is a common surname in Gujarat. She served as Prime Minister from January  to March  and again from January  until her assassination in October , making her the second longest-serving Indian Prime Minister after her father.\n Politician'
p894
aS'   is an Italian politician serving as Deputy Prime Minister of Italy and Minister of the Interior since  June . He has also been Federal Secretary of Northern League since December  and the leader of Us with  since December . He has been a Senator in the Italian Senate since March . He previously served as a Member of the European Parliament  for the constituency of North-West Italy from  to .\n '
p895
aS"   is a Swiss politician of the Social Democratic Party. Since  January , he is a member of the Swiss Federal Council, the seven member Swiss executive, and head of the Federal Department of Home Affairs . On  January , he took office as President of the Swiss Confederation, head of the Federal Council; at age ,  is the youngest President of the Confederation since Marcel Pilet-Golaz in . Before being elected to the Federal Council in December , he was a member of the Swiss Council of States for the Canton of Fribourg since , serving as the chamber's president during the / term.\n "
p896
aS'Mohammed  Abdel Rahman Abdel Raouf  al-Qudwa al-Husseini , popularly known as    or by his kunya Abu Ammar , was a Palestinian political leader. He was Chairman of the Palestine Liberation Organization  from  to  and President of the Palestinian National Authority  from  to . Ideologically an Arab nationalist, he was a founding member of the Fatah political party, which he led from  until .\n Civil engineer'
p897
aS' NA'
p898
aS' NA'
p899
aS' NA'
p900
aS' NA'
p901
aS' NA'
p902
aS' NA'
p903
aS' NA'
p904
aS'    is an Austrian-American actor, filmmaker, businessman, investor, author, philanthropist, activist, politician, and former professional bodybuilder and powerlifter. He served two terms as the th Governor of California from  to .\n '
p905
aS' NA'
p906
aS'    is an American politician who served as the rd President of the United States from  to . He had previously served as the th Governor of Texas from  to .\n Businessman, politician'
p907
aS' NA'
p908
aS' NA'
p909
aS' NA'
p910
aS'     is a Canadian politician serving as the rd and current Prime Minister of Canada since  and Leader of the Liberal Party since .  is the second-youngest Canadian Prime Minister, after Joe Clark; he is also the first to be related to a previous holder of the post, as the eldest son of Pierre .\n Teacher,Politician'
p911
aS' NA'
p912
aS'   is an Italian politician who was the rd Prime Minister from  to . Later he was Deputy Prime Minister and Minister of Foreign Affairs from  to . He is also a journalist and served for a time as national secretary of the Democratic Party of the Left . \nSometimes media refers to him as Leader Maximo, due to his first name , but also for his dominant position in the left-wing coalitions during the Second Republic. Earlier in his career he was a member of the Italian Communist Party, and he was the first former communist to become prime minister of a NATO country.\n '
p913
aS' NA'
p914
aS'   was a Russian revolutionary, Marxist theorist, and Soviet politician whose particular strain of Marxist thought is known as ism.\n '
p915
aS' NA'
p916
aS'    was an American politician and actor who served as the th President of the United States from  to . Prior to the presidency, he was a Hollywood actor and trade union leader before serving as the rd Governor of California from  to .\n Actor, politician, sports commentator'
p917
aS' NA'
p918
aS' NA'
p919
aS'   is an Italian politician serving as Deputy Prime Minister of Italy and Minister of Economic Development, Labour and Social Policies since  June . He previously served as Vice President of the Chamber of Deputies in the XVII Italian legislature. He is the leader of the Five Star Movement, an anti-establishment party founded by Beppe Grillo.\n '
p920
aS'  is a musician and composer born in Nyon  in . He is based in Biel/Bienne  since the late s. \n '
p921
aS' NA'
p922
aS' NA'
p923
aS' NA'
p924
aS'   is an Italian politician who was Prime Minister of Italy from  to , leading a grand coalition comprising the centre-left Democratic Party, the centre-right People of Freedom, and the centrist Civic Choice. He has also been a Member of the Chamber of Deputies since .  was Minister of European Affairs from  to  and Minister of Industry from  to , and served as Secretary to the Council of Ministers from  to .\n '
p925
aS'  ,   was a British stateswoman who served as Prime Minister of the United Kingdom from  to  and Leader of the Conservative Party from  to . She was the longest-serving British prime minister of the th century and the first woman to hold that office. A Soviet journalist dubbed her "The \'Iron Lady", a nickname that became associated with her uncompromising politics and leadership style. As Prime Minister, she implemented policies known as ism.\n Barrister, company director, chemist, politician, statesman'
p926
aS' NA'
p927
aS' NA'
p928
aS' NA'
p929
aS'   , commonly referred to by his initials JFK, was an American politician who served as the th President of the United States from January  until his assassination in November . He served at the height of the Cold War, and the majority of his presidency dealt with managing relations with the Soviet Union. A member of the Democratic Party,  represented Massachusetts in the U.S. House of Representatives and Senate prior to becoming president.\n '
p930
aS"    is a Spanish professional tennis player, currently world No.  in men's singles tennis by the Association of Tennis Professionals .\n "
p931
aS'    is an American film director, producer, screenwriter and film composer. He was a central figure in the New Hollywood wave of filmmaking.\n Film director, screenwriter, film producer, film composer'
p932
aS" Kim Coppola , known professionally as  , is an American actor, director and producer. During his early career,  starred in a variety of films such as Valley Girl , Racing with the Moon , Birdy , Peggy Sue Got Married , Raising Arizona , Moonstruck , Vampire's Kiss , Wild at Heart , Fire Birds , Honeymoon in Vegas , and Red Rock West .\n Actor, director, producer"
p933
aS"    is an American actor. He is known for his roles as John Winchester on the fantasy horror series Supernatural , Denny Duquette on the medical drama series Grey's Anatomy , The Comedian in the superhero film Watchmen , Jason Crouse on the political drama series The Good Wife , Negan on the horror drama series The Walking Dead , and Harvey Russell in Rampage .\n Actor"
p934
aS'    is an American actor, filmmaker and businessman. He is the recipient of three Golden Globe Awards and two Academy Awards, one for acting in Syriana  and the other for co-producing Argo . In , he was the recipient of the AFI Live Achievement Award, at the age of .\n Actor, screenwriter, producer with Smoke House Pictures, director'
p935
aS'    is an American actor and filmmaker. He has won two Academy Awards, for his roles in the mystery drama Mystic River  and the biopic Milk .\n Actor, filmmaker'
p936
aS'    is an American author of horror, supernatural fiction, suspense, science fiction and fantasy. His books have sold more than  million copies, many of which have been adapted into feature films, miniseries, television series, and comic books.  has published  novels, including seven under the pen name Richard Bachman, and six non-fiction books. He has written around  short stories, most of which have been published in book collections.\n Writer, actor, television producer, singer, musician'
p937
aS'    is an American actor, producer, and singer. Born to a German mother and American father in Idar-Oberstein, Germany, he moved to the United States with his family in . His career began on the Off-Broadway stage in the s. He later achieved fame with his leading role on the hit television series Moonlighting . He has since appeared in over  films and is widely regarded as an "action hero" due to his portrayal of John McClane in the Die Hard franchise , and other such roles.\n Actor, producer with Cheyenne Enterprises, singer'
p938
aS' NA'
p939
aS'    is an English actor and producer best known for his role as the titular protagonist in the Harry Potter film series, based on the novels by J. K. Rowling.\n Actor, producer'
p940
aS'   is an American actress, businesswoman, socialite, lifestyle guru, singer, and food writer. She has won various accolades, including an Academy Award, a Golden Globe Award, a Primetime Emmy Award and two Screen Actors Guild Awards.\n Actress, singer, writer'
p941
aS' NA'
p942
aS"   is an Italian singer-songwriter, composer, filmmaker and, under the pseudonym Suphan Barzani, also a painter. 's songs contain esoteric, philosophical and religious themes.\n "
p943
aS' NA'
p944
aS'    is an American actor, film producer, and environmentalist.  began his career by appearing in television commercials in the late s. He next had recurring roles in various television series, such as the soap opera Santa Barbara and the sitcom Growing Pains.\n Actor, Appian Way Productions'
p945
aS' NA'
p946
aS'   is an Indian politician from the Bharatiya Janata Party and a  member of the Rajasthan Legislative Assembly representing the Pushkar Vidhan Sabha constituency of Rajasthan.\n Politician'
p947
aS'    is an American actress and producer. She has received two Academy Awards, two Golden Globe Awards, two Critics Choice Awards, and a Screen Actors Guild Award.\n Actress, producer'
p948
aS'   is an American actor and film producer. He has received multiple awards and nominations including an Academy Award as producer under his own company Plan B Entertainment.\n Actor, film producer'
p949
aS' NA'
p950
aS' NA'
p951
aS'jamin Geza -Boldt  is an American actor and filmmaker. His accolades include two Academy Awards, three Golden Globe Awards, two BAFTA Awards, and two Screen Actors Guild Awards. He began his career as a child and starred in the PBS educational series The Voyage of the Mimi in , before a second run in . He later appeared in the independent coming-of-age comedy Dazed and Confused  and various Kevin Smith films, including Chasing Amy  and Dogma .  gained wider recognition when he and childhood friend Matt Damon won the Golden Globe and Academy Award for Best Original Screenplay for writing Good Will Hunting , which they also starred in. He then established himself as a leading man in studio films, including the disaster drama Armageddon , the romantic comedy Forces of Nature , the war drama Pearl Harbor , and the spy thriller The Sum of All Fears .\n Actor, filmmaker'
p952
aS'    is an American screenwriter, director, producer, and former actress.\n Director, producer, screenwriter, actress'
p953
aS' NA'
p954
aS'    is an American actress, director, and producer. She is one of the highest paid television actors, having signed a $ million annual contract with the American Broadcasting Company in late . She was honored with the  Special Achievement in Entertaining by the National Italian American Foundation for her contributions to the entertainment industry.\n Actress, director, producer'
p955
aS"    is a New Zealand-Canadian-American  actress. She was born in Manitoba and brought up in Wellington, New Zealand, before moving to Los Angeles during her youth. She completed a year at Columbia University before leaving to focus on her acting career. As a child, she played the role of Flora McGrath in Jane Campion's romantic drama film The Piano , despite having had little acting experience. For her performance, she received the Academy Award for Best Supporting Actress at the age of , making her the second-youngest winner in Oscar history.\n Actress"
p956
aS'     is an English singer-songwriter, multi-instrumentalist, and composer. He gained worldwide fame as the bass guitarist and singer for the rock band the Beatles, widely considered the most popular and influential group in the history of popular music. His songwriting partnership with John Lennon remains the most successful in history. After the group disbanded in , he pursued a solo career and formed the band Wings with his first wife, Linda, and Denny Laine.\n Singer-songwriter, music and film producer, businessman'
p957
aS'     is a Jamaican retired sprinter and world record holder in the  metres,  metres and  x  metres relay. His reign as Olympic Games champion in all of these events spans three Olympics. Owing to his achievements and dominance in sprint competition, he is widely considered to be the greatest sprinter of all time.\n '
p958
aS' NA'
p959
aS' NA'
p960
aS' NA'
p961
aS'    is an American director, writer, actor, and comedian whose career spans more than six decades. He began his career as a comedy writer in the s, writing jokes and scripts for television and publishing several books of short humor pieces. In the early s,  began performing as a stand-up comedian, emphasizing monologues rather than traditional jokes. As a comedian, he developed the persona of an insecure, intellectual, fretful nebbish, which he maintains is quite different from his real-life personality. In , Comedy Central ranked  fourth on a list of the  greatest stand-up comedians, while a UK survey ranked  as the third-greatest comedian.\n Director, writer, actor, comedian'
p962
aS'     is an Australian actress and producer. She is the recipient of multiple awards, including an Academy Award, two Primetime Emmy Awards, five Golden Globe Awards, the Silver Bear for Best Actress, and a Cannes Film Festival special award.\n Actress, producer'
p963
aS'    is an American singer, songwriter, and actress. After playing minor roles in the television series Doc and the film Big Fish in her childhood, she became a teen idol starring as the character  Stewart on the Disney Channel television series Hannah Montana in . Her father Billy   also starred on the series, which aired for four seasons until .\n Singer, songwriter, actress'
p964
aS"     is an American actor and producer. He first gained notice for his breakout role in the coming-of-age comedy Dazed and Confused , before going on to appear in the slasher film Texas Chainsaw Massacre: The Next Generation , A Time to Kill , the comedy film Larger than Life , Steven Spielberg's historical drama Amistad , the science fiction drama Contact , the comedy EDtv , and the war film U- .\n Actor, producer"
p965
aS"    is an English comedian, writer, producer, political commentator, actor, and television host.  started his career as a stand-up comedian, both in the United Kingdom and United States. He came to wider attention for his work on The Daily Show with Jon Stewart as its senior British correspondent from  to .  won three Primetime Emmy Awards for his work as a writer on The Daily Show and was its guest host for an eight-week period in . In addition to The Daily Show,  co-hosted the satirical comedy podcast The Bugle  with Andy Zaltzman, with whom  had previously co-hosted the radio series Political Animal, and hosted  's New York Stand-Up Show on Comedy Central from  to . He has also acted on television, most notably in a recurring role as Ian Duncan on the NBC sitcom Community.\n "
p966
aS' NA'
p967
aS' NA'
p968
aS"   is an American actress and film producer. One of the most successful and iconic actresses of the s, she made her film debut in  Lucas . As Lydia Deetz, a goth teenager in Tim Burton's Beetlejuice , she garnered critical acclaim and widespread recognition. After appearances in film and on television,  continued her acting career with the cult film Heathers , a controversial satire that has since become a landmark teen film. She later appeared in the coming of age drama Mermaids , earning a Golden Globe Award nomination, and in the same year appeared alongside Johnny Depp in Burton's dark fairy-tale Edward Scissorhands , and shortly thereafter opposite Gary Oldman in Francis Ford Coppola's gothic horror romance Bram Stoker's Dracula .\n Actress"
p969
aS' NA'
p970
aS' NA'
p971
aS'    is a Canadian singer-songwriter. After talent manager Scooter Braun discovered him through his YouTube videos covering songs in  and he signed to RBMG,  released his debut EP, My World, in late . It was certified platinum in the US. He became the first artist to have seven songs from a debut record chart on the Billboard Hot .  released his first full-length studio album, My World ., in . It debuted at number one in several countries, was certified triple platinum in the US, and contained his single "Baby".\n Singer, songwriter'
p972
aS"   is an American film director, producer, artist, writer, and animator. He is known for his dark, gothic, and eccentric horror and fantasy films such as Beetlejuice , Edward Scissorhands , The Nightmare Before Christmas , Ed Wood , Sleepy Hollow , Corpse Bride , Sweeney Todd: The Demon Barber of Fleet Street , Dark Shadows , and Frankenweenie . He is also known for blockbusters such as the adventure comedy Pee-wee's Big Adventure , the superhero films Batman  and its first sequel Batman Returns , the sci-fi film Planet of the Apes , the fantasy drama Big Fish , the musical adventure film Charlie and the Chocolate Factory , and the fantasy film Alice in Wonderland .\n Film director, film producer, writer, artist"
p973
aS' NA'
p974
aS' NA'
p975
aS' NA'
p976
aS'   is an American singer-songwriter, author, and artist who has been an influential figure in popular music and culture for more than five decades. Much of his most celebrated work dates from the s, when he became a reluctant "voice of a generation" with songs such as "Blowin\' in the Wind" and "The Times They Are a-Changin\'" which became anthems for the Civil Rights Movement and anti-war movement. In , he controversially "went electric", branching out from his earlier work and alienating some fans of the American folk music revival, recording a six-minute single, "Like a Rolling Stone", which enlarged the scope of popular music.\n Singer-songwriter, artist, writer'
p977
aS'    is an American comedian, television host, actress, writer, producer, and LGBT activist. She starred in the popular sitcom  from  to  and has hosted her syndicated TV talk show, The   Show, since .\n '
p978
aS'   is an Italian retired footballer who played as a defender.\n '
p979
aS'   is a South African-American actress and film producer. She is the recipient of several accolades, including an Academy Award, a Golden Globe Award, and the Silver Bear for Best Actress.\n Actress, Producer'
p980
aS'    is an American actress. Her films have grossed over $. billion worldwide, and she was the highest-paid actress in the world in  and .  appeared in Time  most influential people in the world list in  and in the Forbes Celebrity  list in  and .\n Actress'
p981
aS' NA'
p982
aS'   is an American actor, producer, and narrator.  won an Academy Award in  for Best Supporting Actor with Million Dollar Baby , and he has received Oscar nominations for his performances in Street Smart , Driving Miss Daisy , The Shawshank Redemption , and Invictus . He has also won a Golden Globe Award and a Screen Actors Guild Award.\n Actor'
p983
aS'    is an American actress, film producer, and businessperson. She is the daughter of Greek-born actor John  and American actress Nancy Dow.  gained worldwide recognition for portraying Rachel Green on the television sitcom Friends , a role which earned her a Primetime Emmy Award, a Golden Globe Award, and a Screen Actors Guild Award . The character was widely popular during the airing of the series and was later recognized as one of the greatest female characters in American television.\n Actress, film producer, businessperson'
p984
aS"  ,   is an Italian actor, comedian, screenwriter and director.  He co-wrote, directed and acted in the  film Life Is Beautiful, which won him the Academy Award for Best Actor at the st Oscars Ceremony. He also portrayed Inspector Clouseau's son in Son of the Pink Panther  and has collaborated with filmmaker Jim Jarmusch in three of his films: Down by Law , Night on Earth  and Coffee and Cigarettes .\n Film director, screenwriter, actor, comedian"
p985
aS'    is an English actress, model, and activist. Born in Paris and brought up in Oxfordshire,  attended the Dragon School and trained as an actress at the Oxford branch of Stagecoach Theatre Arts. As a child artist, she rose to prominence after landing her first professional acting role as Hermione Granger in the Harry Potter film series, having acted only in school plays previously.  appeared in all eight Harry Potter films from  to , earning worldwide fame, critical accolades, and around $ million.\n Actress, model, activist'
p986
aS'Katheryn Elizabeth Hudson , known professionally as  , is an American singer, songwriter, and television personality. After singing in church during her childhood, she pursued a career in gospel music as a teenager.  signed with Red Hill Records and released her debut studio album  Hudson under her birth name in , which was commercially unsuccessful. She moved to Los Angeles the following year to venture into secular music after Red Hill ceased operations and she subsequently began working with producers Glen Ballard, Dr. Luke, and Max Martin. After adopting the stage name   and being dropped by The Island Def Jam Music Group and Columbia Records, she signed a recording contract with Capitol Records in April .\n Singer, songwriter, actress, businesswoman, philanthropist, television judge'
p987
aS'     is an English novelist and screenwriter. In , The Times featured him on their list of "The  greatest British writers since " and The Daily Telegraph ranked him number  in their list of the " most powerful people in British culture".\n <td class="role" style="line-height:1.4em;">Novelist, screenwriter'
p988
aS'    is a Scottish American actor, best known for his role as neurosurgeon Derek "McDreamy" Shepherd in Grey\'s Anatomy, starring with Ellen Pompeo . He saw early success as an actor, starring in a number of films in the s, including Can\'t Buy Me Love  and Loverboy . In the s, he mostly appeared in smaller roles in film, such as Outbreak  and television, before landing a lead role in Sweet Home Alabama , a surprise box office hit. He has since starred in other films, including Enchanted , Made of Honor , Valentine\'s Day , Flypaper , Freedom Writers , Transformers: Dark of the Moon , and Bridget Jones\'s Baby .\n Actor, Race car driver'
p989
aS" Maria    is an American singer, songwriter, actress and television personality. Her work has earned her five Grammy Awards, one Latin Grammy Award, and a star on the Hollywood Walk of Fame. She has sold more than  million records worldwide, making her one of the world's best-selling music artists. In , she ranked at number  on Rolling Stones list of  Greatest Singers of All Time, thereby becoming the youngest and the only artist under  to be named. Billboard recognized her as the th most successful artist of the s, and in , Time included  on their annual list of the  most influential people in the world.\n Singer, songwriter, actress, television personality"
p990
aS' NA'
p991
aS"    is an American actor. He began in films in the s, playing a supporting role in Looking for Mr. Goodbar  and a starring role in Days of Heaven . He came to prominence with his role in the film American Gigolo , which established him as a leading man and a sex symbol. He went on to star in many well-received films, including An Officer and a Gentleman , The Cotton Club , Pretty Woman , Primal Fear , Runaway Bride , I'm Not There , Arbitrage  and Norman: The Moderate Rise and Tragic Fall of a New York Fixer . For portraying Billy Flynn in the Academy Award-winning musical Chicago , he won a Golden Globe Award and a Screen Actors Guild Award as part of the cast.\n Actor"
p992
aS' NA'
p993
aS'  ,   is an English actress. She is particularly known for her work in period dramas and tragedies, and is often drawn to portraying troubled women.  is the recipient of several accolades, including three British Academy Film Awards, and is among the few performers to have won Academy, Emmy, and Grammy Awards.\n Actress'
p994
aS' NA'
p995
aS' NA'
p996
aS' Novelist, short story writer, screenwriter'
p997
aS'    is an American actor, film producer, dancer, singer and pilot.  first became known in the s, after appearing on the television series Welcome Back, Kotter  and starring in the box office successes Saturday Night Fever  and Grease . His acting career declined through the s, but enjoyed a resurgence in the s with his role in Pulp Fiction , and he has since starred in films such as Get Shorty, Broken Arrow, Face/Off, Swordfish, Be Cool, Wild Hogs, Hairspray, and The Taking of Pelham .\n Actor, producer, singer, dancer'
p998
aS' NA'
p999
aS'    is an American singer, actress, dancer and producer. In ,  began appearing as a Fly Girl dancer on In Living Color, where she remained a regular until she decided to pursue an acting career in . For her first leading role in the  Selena biopic of the same name,  received a Golden Globe nomination and became the first Latin actress to earn over US$ million for a film. She went on to star in Anaconda  and Out of Sight , later establishing herself as the highest-paid Latin actress in Hollywood.\n Singer, actress, dancer, producer'
p1000
aS"    is an American actress and model. She has performed in a variety of films, ranging from romantic comedies and dramas to science fiction and action movies. Following her appearances on the December  and May  covers of British Vogue,  starred in Dangerous Liaisons .  She rose to international prominence with her performance in Pulp Fiction , for which she was nominated for the Academy Award, the BAFTA Award, and the Golden Globe Award for Best Supporting Actress. Often hailed as Quentin Tarantino's muse, she reunited with the director to play the main role in both Kill Bill films , which brought her two additional Golden Globe Award nominations.\n Actress, model"
p1001
aS'    is an English singer, pianist, and composer. He has worked with lyricist Bernie Taupin as his songwriting partner since ; they have collaborated on more than  albums.  has sold more than million records, making him one of the best-selling music artists in the world. He has more than fifty Top  hits, including seven consecutive number one albums in the U.S.,  Billboard Top  singles,  Top , four which reached number two and nine which reached number one. His tribute single "Candle in the Wind ", rewritten in dedication to Diana, Princess of Wales, sold over million copies worldwide and is the best-selling single in the history of the UK and U.S. singles charts. He has also composed music, produced records, and has occasionally acted in films.\n Musician, singer-songwriter, composer'
p1002
aS"    is an American television host, comedian, writer, and producer. He hosted late night television talk shows for  years, beginning with the February , , debut of Late Night with   on NBC, and ending with the May , , broadcast of Late Show with   on CBS. In total,  hosted , episodes of Late Night and Late Show, surpassing friend and mentor Johnny Carson as the longest-serving late night talk show host in American television history. In   was ranked th on TV Guides  Greatest TV Stars of All Time. In , The Late Show with   was ranked seventh on TV Guide's  Greatest TV Shows of All Time.\n "
p1003
aS'<br/>\n  , also known as  or with the nickname Il Blasco, is an Italian singer-songwriter. During his career, he has published  albums  and has written over  songs, as well as lyrics for other artists.  He calls himself a "provocatore"  as throughout his career he has been regularly criticized over his choice of lifestyle and the lyrics in his songs. With more than  millions of copies sold, he is one of the best-selling Italian singers.\n singer'
p1004
aS' NA'
p1005
aS'   is an American singer and songwriter. Referred to as the "Songbird Supreme" by the Guinness World Records, she is noted for her five-octave vocal range, power, melismatic style, and signature use of the whistle register. She rose to superstardom in  after signing to Columbia Records and releasing her eponymous debut album, which peaked atop the Billboard .  became the first and only artist to have their first five singles reach number-one on the U.S. Billboard Hot  chart, from "Vision of Love" to "Emotions".\n Singer, songwriter, actress, record producer'
p1006
aS'     is an English actress. She has worked in the British and American film industries, and has starred in Broadway and West End theatre productions. She has won an Empire Award and multiple nominations for British Academy, Golden Globe, and Academy Awards.\n Actress'
p1007
aS'      is an American filmmaker. He is considered one of the founding pioneers of the New Hollywood era and one of the most popular directors and producers in film history.\n Filmmaker'
p1008
aS' NA'
p1009
aS'    is an American actress. She is best known for her roles as Willow Rosenberg on the television series Buffy the Vampire Slayer , Lily Aldrin on the sitcom How I Met Your Mother , and Michelle Flaherty in the American Pie film series .\n Actress, television host'
p1010
aS' NA'
p1011
aS' NA'
p1012
aS' NA'
p1013
aS"     is a Portuguese professional footballer who plays as a forward for Italian club Juventus and the Portugal national team. Often considered the best player in the world and  regarded by many as one of the greatest players of all time,  has a record-tying five Ballon d'Or awards, the most for a European player, and is the first player to win four European Golden Shoes. He has won  trophies in his career, including five league titles, five UEFA Champions League titles and one UEFA European Championship. A prolific goalscorer,  holds the records for most official goals scored in Europe's top-five leagues , the UEFA Champions League , the UEFA European Championship , as well as those for most assists in the UEFA Champions League  and the UEFA European Championship . He has scored over  senior career goals for club and country.\n "
p1014
aS'   is an American actress, director, and producer. She has received two Academy Awards, three British Academy Film Awards, two Golden Globe Awards, a Screen Actors Guild Award and the Cecil B DeMille Award. For her work as a director,  has been nominated for two Directors Guild of America Awards and a Primetime Emmy Award.\n Actress, director, producer'
p1015
aS'   is an Italian actor, film director, screenwriter and film producer.\n Actor, film director, screenwriter, film producer'
p1016
aS'    is an American actor, writer, producer, comedian, magician, and singer. He is known primarily for his comedy roles on television and his dramatic and musical stage roles. On television, he is known for playing the title character on Doogie Howser, M.D. , Barney Stinson on How I Met Your Mother , and  Count Olaf in A Series of Unfortunate Events .\n Actor, writer, producer, comedian, magician, singer'
p1017
aS' Actor, producer'
p1018
aS'    is an Italian actress and model.  began her career as a fashion model, modeling for the likes of Dolce & Gabbana and Dior, before making a transition to Italian films and later Hollywood films. She is often considered among the most beautiful women in the world.\n Actress * fashion model'
p1019
aS'    is an American director, writer, and actor. His films are characterized by nonlinear storylines; satirical subject matter; an aestheticization of violence; extended scenes of dialogue; ensemble casts consisting of established and lesser-known performers; references to popular culture and a wide variety of other films; soundtracks primarily containing songs and score pieces from the s to the s; and features of neo-noir film.\n Director, writer, actor'
p1020
aS' NA'
p1021
aS' NA'
p1022
aS'   Commendatore OMRI  is a retired Italian gymnast.\n '
p1023
aS' NA'
p1024
aS' NA'
p1025
aS' NA'
p1026
aS'    is an American actress and producer. She became a Hollywood star after headlining the romantic comedy Pretty Woman , which grossed $ million worldwide. She has won three Golden Globe Awards  and has been nominated for four Academy Awards for her film acting, winning the Academy Award for Best Actress for her performance in Erin Brockovich .\n Actress, producer'
p1027
aS'   is a film actress, producer, and director with dual Israeli and American citizenship. She is the recipient of various accolades, including an Academy Award and two Golden Globe Awards.\n Actress, film producer, director'
p1028
aS"   is an American actress, filmmaker, and humanitarian. She has received an Academy Award, two Screen Actors Guild Awards, and three Golden Globe Awards, and has been cited as Hollywood's highest-paid actress.  made her screen debut as a child alongside her father, Jon , in Lookin' to Get Out . Her film career began in earnest a decade later with the low-budget production Cyborg  , followed by her first leading role in a major film, Hackers . She starred in the critically acclaimed biographical cable films George Wallace  and Gia , and won an Academy Award for Best Supporting Actress for her performance in the drama Girl, Interrupted .\n Actress, filmmaker, activist"
p1029
aS"   is an American actor and singer. His career has included critical and popular success in his youth, followed by a period of substance abuse and legal difficulties, and a resurgence of commercial success in middle age. For three consecutive years from  to ,  topped the Forbes list of Hollywood's highest-paid actors, making an estimated $ million in earnings between June  and June .\n Actor, singer-songwriter"
p1030
aS' NA'
p1031
aS' NA'
p1032
aS'   is an American actor, writer and film producer. He gained worldwide fame for his starring roles as Han Solo in the Star Wars film series and as the title character of the Indiana Jones film series. Five of his movies are within the  top-grossing movies of all time at the US box office .  is also known for playing Rick Deckard in the neo-noir dystopian science fiction film Blade Runner  and its sequel Blade Runner  ; John Book in the thriller Witness , for which he was nominated for the Academy Award for Best Actor; and Jack Ryan in the action films Patriot Games  and Clear and Present Danger .\n Actor, producer'
p1033
aS' NA'
p1034
aS' NA'
p1035
aS"  is an American reality television personality, entrepreneur and socialite.  first gained media attention as a friend and stylist of Paris Hilton, but received wider notice after a  sex tape with her former boyfriend Ray J was leaked in . Later that year, she and her family began to appear in the E! reality television series Keeping Up with the s. Its success soon led to the creation of spin-offs including Kourtney and  Take New York and Kourtney and Khloe Take Miami. 's personal life soon became subject to widespread media attention.\n Television personality, socialite, actress, businesswoman, model"
p1036
aS' NA'
p1037
aS"    is an American actress, producer, author, and fashion model. She has frequently appeared in comedies throughout her career, while also earning critical recognition in dramatic films. Her accolades include four Golden Globe Award nominations, three Screen Actors Guild Award nominations, and a  New York Film Critics Award. In , she was named the highest-paid actress over  in Hollywood. As of  , the U.S. domestic box office grosses of 's films total over $ billion USD, with worldwide grosses surpassing $ billion, making her the fifth highest-grossing U.S. domestic box office actress.\n Actress, producer, model, author"
p1038
aS'    is an American singer, songwriter, dancer, and actress. Born in McComb, Mississippi, and raised in Kentwood, Louisiana, she appeared in stage productions and television series, before signing with Jive Records in . \'s first two studio albums, ...Baby One More Time  and Oops!... I Did It Again , were global successes and made her the best-selling teenage artist of all-time. Referred to as the "Princess of Pop",  was credited with influencing the revival of teen pop during the late s and early s.\n Singer, dancer, actress'
p1039
aS' NA'
p1040
aS' ,   is an Italian singer, songwriter, and record producer. Celine Dion has said that "if God would have a singing voice, he must sound a lot like  ," and David Foster, a record producer, often describes \'s voice as the most beautiful in the world.\n '
p1041
aS' ,   is an English singer, songwriter, guitarist, record producer, and actor.  was born in Halifax, West Yorkshire, and raised in Framlingham, Suffolk. He attended the Academy of Contemporary Music in Guildford as an undergraduate from the age of  in . In early ,  independently released the extended play, No.  Collaborations Project.\n Singer, songwriter, record producer, guitarist, actor'
p1042
aS' NA'
p1043
aS"    is an American actress, producer, and former fashion model. After modelling in television commercials and print advertisements, she made her film debut as an extra in Woody Allen's comedy-drama Stardust Memories . Her first speaking part was in Wes Craven's horror film Deadly Blessing , and throughout the s,  went on to appear in films such as Irreconcilable Differences , King Solomon's Mines , Cold Steel , and Above the Law . She found mainstream prominence with her part in Paul Verhoeven's action film Total Recall .\n Actress, model, film producer"
p1044
aS"   is a Swiss professional tennis player who is currently ranked world No.  in men's singles tennis by the Association of Tennis Professionals .  has won  Grand Slam singles titles--the most in history for a male player--and has held the world No.  spot in the ATP rankings for a record total of  weeks, including a record  consecutive weeks. After turning professional in , he was continuously ranked in the top ten from October  to November . He re-entered the top ten following his victory at the  Australian Open.\n "
p1045
aS'    is an American professional tennis player. The Women\'s Tennis Association  ranked her world No.  in singles on eight separate occasions between  and . She reached the No.  ranking for the first time on July , . On her sixth occasion, she held the ranking for  consecutive weeks, tying the record set by Steffi Graf. In total, she has been No.  for  weeks, which ranks third in the "Open Era" among female players behind Graf and Martina Navratilova.\n '
p1046
atp1047
bag19
(g20
(I0
tp1048
g22
tp1049
Rp1050
(I1
(I2
I190
tp1051
g26
(S'f8'
p1052
I0
I1
tp1053
Rp1054
(I3
S'<'
p1055
NNNI-1
I-1
I0
tp1056
bI00
S'\x9fK\x84\xef\x80\x0b\xdb?\xe5\xf7\xa7\xe6\x910\xc8?\x1c\x07 \xa4\xc9\xf2\xd6?\x00\x00\x00\x00\x00\x00\x00\x00\x00\x00\x00\x00\x00\x00\x00\x00\xcf^\xd5\xda\x0c\x99\xce?\x00\x00\x00\x00\x00\x00\x00\x00\x1c\x07 \xa4\xc9\xf2\xd6?\x00\x00\x00\x00\x00\x00\x00\x00=6\x10X6\xa8\xd9?\x00\x00\x00\x00\x00\x00\x00\x00\x00\x00\x00\x00\x00\x00\x00\x00\x00\x00\x00\x00\x00\x00\x00\x00\x00\x00\x00\x00\x00\x00\x00\x00\x00\x00\x00\x00\x00\x00\x00\x00\x00\x00\x00\x00\x00\x00\x00\x00\x00\x00\x00\x00\x00\x00\x00\x00\x02\x0e\xe0P6\xc0\xd3?\x00\x00\x00\x00\x00\x00\x00\x00\x90{\xaf\x97\n\xa1\xd4?\x00\x00\x00\x00\x00\x00\xf8\x7f\x00\x00\x00\x00\x00\x00\xf8\x7f\x00\x00\x00\x00\x00\x00\xf8\x7f\x00\x00\x00\x00\x00\x00\xf8\x7f\x00\x00\x00\x00\x00\x00\xf8\x7f\x00\x00\x00\x00\x00\x00\xf8\x7f\x00\x00\x00\x00\x00\x00\xf8\x7f\x00\x00\x00\x00\x00\x00\xf8\x7f\x00\x00\x00\x00\x00\x00\xf8\x7f\x00\x00\x00\x00\x00\x00\xf8\x7f\x00\x00\x00\x00\x00\x00\xf8\x7f\x00\x00\x00\x00\x00\x00\xf8\x7f\x00\x00\x00\x00\x00\x00\xf8\x7f\x00\x00\x00\x00\x00\x00\xf8\x7f\x00\x00\x00\x00\x00\x00\xf8\x7f\x00\x00\x00\x00\x00\x00\xf8\x7f\x00\x00\x00\x00\x00\x00\xf8\x7f\x00\x00\x00\x00\x00\x00\xf8\x7f\x00\x00\x00\x00\x00\x00\xf8\x7f\x00\x00\x00\x00\x00\x00\xf8\x7f\x00\x00\x00\x00\x00\x00\xf8\x7f\x00\x00\x00\x00\x00\x00\xf8\x7f\x00\x00\x00\x00\x00\x00\xf8\x7f\x00\x00\x00\x00\x00\x00\xf8\x7f\x00\x00\x00\x00\x00\x00\xf8\x7f\x00\x00\x00\x00\x00\x00\xf8\x7f\x00\x00\x00\x00\x00\x00\xf8\x7f\x00\x00\x00\x00\x00\x00\xf8\x7f\x00\x00\x00\x00\x00\x00\xf8\x7f\x00\x00\x00\x00\x00\x00\xf8\x7f\x00\x00\x00\x00\x00\x00\xf8\x7f\x00\x00\x00\x00\x00\x00\xf8\x7f\x00\x00\x00\x00\x00\x00\xf8\x7f\x00\x00\x00\x00\x00\x00\xf8\x7f\x00\x00\x00\x00\x00\x00\xf8\x7f\x00\x00\x00\x00\x00\x00\xf8\x7f\x00\x00\x00\x00\x00\x00\xf8\x7f\x00\x00\x00\x00\x00\x00\xf8\x7f\x00\x00\x00\x00\x00\x00\xf8\x7f\x00\x00\x00\x00\x00\x00\xf8\x7f\x00\x00\x00\x00\x00\x00\xf8\x7f\x00\x00\x00\x00\x00\x00\xf8\x7f\x00\x00\x00\x00\x00\x00\xf8\x7f\x00\x00\x00\x00\x00\x00\xf8\x7f\x00\x00\x00\x00\x00\x00\xf8\x7f\x00\x00\x00\x00\x00\x00\xf8\x7f\x00\x00\x00\x00\x00\x00\xf8\x7f\x00\x00\x00\x00\x00\x00\xf8\x7f\x00\x00\x00\x00\x00\x00\xf8\x7f\x00\x00\x00\x00\x00\x00\xf8\x7f\x00\x00\x00\x00\x00\x00\xf8\x7f\x00\x00\x00\x00\x00\x00\xf8\x7f\x00\x00\x00\x00\x00\x00\xf8\x7f\x00\x00\x00\x00\x00\x00\xf8\x7f\x00\x00\x00\x00\x00\x00\x00\x00\x00\x00\x00\x00\x00\x00\x00\x00\x00\x00\x00\x00\x00\x00\x00\x00\x00\x00\x00\x00\x00\x00\x00\x00\x00\x00\x00\x00\x00\x00\x00\x00\x00\x00\x00\x00\x00\x00\x00\x00\x00\x00\x00\x00\x00\x00\x00\x00\x00\x00\x00\x00\x00\x00\x00\x00\x00\x00\x00\x00\x00\x00\x00\x00\xe5\xf7\xa7\xe6\x910\xc8?\x00\x00\x00\x00\x00\x00\x00\x00\x00\x00\x00\x00\x00\x00\x00\x00\x00\x00\x00\x00\x00\x00\x00\x00\x00\x00\x00\x00\x00\x00\x00\x00\x00\x00\x00\x00\x00\x00\x00\x00\x00\x00\x00\x00\x00\x00\x00\x00\x00\x00\x00\x00\x00\x00\x00\x00\x00\x00\x00\x00\x00\x00\x00\x00\x00\x00\x00\x00\x00\x00\x00\x00\x00\x00\x00\x00\x00\x00\x00\x00\x00\x00\x00\x00\x00\x00\x00\x00\x00\x00\x00\x00\x00\x00\x00\x00\x00\x00\x00\x00\x00\x00\x00\x00\x00\x00\x00\x00\x00\x00\x00\x00\x00\x00\x00\x00\x00\x00\x00\x00\x00\x00\x00\x00\x00\x00\x00\x00\xe5\xf7\xa7\xe6\x910\xc8?\x00\x00\x00\x00\x00\x00\x00\x00\x00\x00\x00\x00\x00\x00\x00\x00\x00\x00\x00\x00\x00\x00\x00\x00\x00\x00\x00\x00\x00\x00\x00\x00\x00\x00\x00\x00\x00\x00\x00\x00\x00\x00\x00\x00\x00\x00\x00\x00\x00\x00\x00\x00\x00\x00\x00\x00\x00\x00\x00\x00\x00\x00\x00\x00\x00\x00\x00\x00\x00\x00\x00\x00\x00\x00\x00\x00\x00\x00\x00\x00\x00\x00\x00\x00\x00\x00\x00\x00\x00\x00\x00\x00\x00\x00\x00\x00\x00\x00\x00\x00\x00\x00\x00\x00\x00\x00\x00\x00\x00\x00\x00\x00\x00\x00\x00\x00\x00\x00\x00\x00\x00\x00\x00\x00\x00\x00\x00\x00\x00\x00\x00\x00\x00\x00\x00\x00\x00\x00\x00\x00\x00\x00\x00\x00\xe5\xf7\xa7\xe6\x910\xc8?\x00\x00\x00\x00\x00\x00\x00\x00\x00\x00\x00\x00\x00\x00\x00\x00\x00\x00\x00\x00\x00\x00\x00\x00\x00\x00\x00\x00\x00\x00\x00\x00\x00\x00\x00\x00\x00\x00\x00\x00\x00\x00\x00\x00\x00\x00\x00\x00\x00\x00\x00\x00\x00\x00\x00\x00\x00\x00\x00\x00\x00\x00\x00\x00\x00\x00\x00\x00\x00\x00\x00\x00\x00\x00\x00\x00\x00\x00\x00\x00\x00\x00\x00\x00\x00\x00\x00\x00\x00\x00\x00\x00\x00\x00\xf8\x7f\x00\x00\x00\x00\x00\x00\xf8\x7f\x00\x00\x00\x00\x00\x00\xf8\x7f\x00\x00\x00\x00\x00\x00\xf8\x7f\x00\x00\x00\x00\x00\x00\xf8\x7f\x00\x00\x00\x00\x00\x00\xf8\x7f\x00\x00\x00\x00\x00\x00\xf8\x7f\x00\x00\x00\x00\x00\x00\xf8\x7f\x00\x00\x00\x00\x00\x00\xf8\x7f\x00\x00\x00\x00\x00\x00\xf8\x7f\x00\x00\x00\x00\x00\x00\xf8\x7f\x00\x00\x00\x00\x00\x00\xf8\x7f\x00\x00\x00\x00\x00\x00\xf8\x7f\x00\x00\x00\x00\x00\x00\xf8\x7f\x00\x00\x00\x00\x00\x00\xf8\x7f\x00\x00\x00\x00\x00\x00\xf8\x7f\x00\x00\x00\x00\x00\x00\xf8\x7f\x00\x00\x00\x00\x00\x00\xf8\x7f\x00\x00\x00\x00\x00\x00\xf8\x7f\x00\x00\x00\x00\x00\x00\xf8\x7f\x00\x00\x00\x00\x00\x00\xf8\x7f\x00\x00\x00\x00\x00\x00\xf8\x7f\x00\x00\x00\x00\x00\x00\xf8\x7f\x00\x00\x00\x00\x00\x00\xf8\x7f\x00\x00\x00\x00\x00\x00\xf8\x7f\x00\x00\x00\x00\x00\x00\xf8\x7f\x00\x00\x00\x00\x00\x00\xf8\x7f\x00\x00\x00\x00\x00\x00\xf8\x7f\x00\x00\x00\x00\x00\x00\xf8\x7f\x00\x00\x00\x00\x00\x00\xf8\x7f\x00\x00\x00\x00\x00\x00\xf8\x7f\x00\x00\x00\x00\x00\x00\xf8\x7f\x00\x00\x00\x00\x00\x00\xf8\x7f\x00\x00\x00\x00\x00\x00\xf8\x7f\x00\x00\x00\x00\x00\x00\xf8\x7f\x00\x00\x00\x00\x00\x00\xf8\x7f\x00\x00\x00\x00\x00\x00\xf8\x7f\x00\x00\x00\x00\x00\x00\xf8\x7f\x00\x00\x00\x00\x00\x00\xf8\x7f\x00\x00\x00\x00\x00\x00\xf8\x7f\x00\x00\x00\x00\x00\x00\xf8\x7f\x00\x00\x00\x00\x00\x00\xf8\x7f\x00\x00\x00\x00\x00\x00\xf8\x7f\x00\x00\x00\x00\x00\x00\xf8\x7f\x00\x00\x00\x00\x00\x00\xf8\x7f\x00\x00\x00\x00\x00\x00\xf8\x7f\x00\x00\x00\x00\x00\x00\xf8\x7f\x00\x00\x00\x00\x00\x00\xf8\x7f\x00\x00\x00\x00\x00\x00\xf8\x7f\x00\x00\x00\x00\x00\x00\xf8\x7f\x00\x00\x00\x00\x00\x00\xf8\x7f\x00\x00\x00\x00\x00\x00\xf8\x7f\x00\x00\x00\x00\x00\x00\xf8\x7f\x00\x00\x00\x00\x00\x00\xf8\x7f\x00\x00\x00\x00\x00\x00\xf8\x7f\x00\x00\x00\x00\x00\x00\xf8\x7f\x00\x00\x00\x00\x00\x00\xf8\x7f\x00\x00\x00\x00\x00\x00\xf8\x7f\x00\x00\x00\x00\x00\x00\xf8\x7fU\'\xc5\x9c\x1a\xf8\xdc?\xdc\xbey\xf9t\xb6\xd9?;g\xf7\xa1L\xd4\xdb?\xdc\xbey\xf9t\xb6\xd9?\x0c*\xcdf\xa8\x99\xdb?\xdc\xbey\xf9t\xb6\xd9?\x92\x94?g\xca\xba\xdc?\xdc\xbey\xf9t\xb6\xd9?o\x82\xc6\'\x02\'\xda?&!t\xc3\x9d\x1b\xdb?\xdc\xbey\xf9t\xb6\xd9?\xf3X\xfb\xc2\xbc\xdf\xdb?1 ,m\x8e\xac\xdc?\xdc\xbey\xf9t\xb6\xd9?\xdc\xbey\xf9t\xb6\xd9?\xdc\xbey\xf9t\xb6\xd9?C\xc6\xd1\xce\xdc\xb4\xda?\x93\xc8\x86\xd4\xbft\xdc?\x84\xe8\x84\x96U,\xdf?\xdc\xbey\xf9t\xb6\xd9?\xdc\xbey\xf9t\xb6\xd9?\xdc\xbey\xf9t\xb6\xd9?\xef:\xb4\x0b\x87@\xdb?\xdc\xbey\xf9t\xb6\xd9? ,r\x98G\xbc\xdc?}\xa0f\xf9\x16\x7f\xdb?-y\x8c\x7f\x8c\xac\xdb?\xack\xdfD\x82\x02\xdc?\xdc\xbey\xf9t\xb6\xd9?\xdc\xbey\xf9t\xb6\xd9?\xdc\xbey\xf9t\xb6\xd9?\xb6\xbb\x1d\xe5\xf8\xa4\xdb?\xdc\xbey\xf9t\xb6\xd9?\xdc\xbey\xf9t\xb6\xd9?\xa9H\xb6\x07s\xdc\xdb?]=\xd2F\xd4\xd1\xdc?C\x80`\x8e#4\xda?\xc29%\xab\xf2\xb5\xdb?\xc9^\xa6\x12\xf7:\xdc?z\x83\xf8rDh\xdb?ub\xc0\xb5k{\xda?\xdc\xbey\xf9t\xb6\xd9?\xdc\xbey\xf9t\xb6\xd9?\xdc\xbey\xf9t\xb6\xd9?\xdc\xbey\xf9t\xb6\xd9?\xdc\xbey\xf9t\xb6\xd9?\xdc\xbey\xf9t\xb6\xd9?\xdc\xbey\xf9t\xb6\xd9?WZ\xd8\xe2\xdc^\xda?\xdc\xbey\xf9t\xb6\xd9?>\x14\x87\xae\xa1\xb3\xde?\xdc\xbey\xf9t\xb6\xd9?\xdc\xbey\xf9t\xb6\xd9?\xdc\xbey\xf9t\xb6\xd9?\x99ZP\xc4\x85\xd8\xdc?\xdc\xbey\xf9t\xb6\xd9?\xe1\xf4\xa6?4\xa3\xdb?\xdc\xbey\xf9t\xb6\xd9?\x12 \x08\x05\xfcl\xdb?\xdc\xbey\xf9t\xb6\xd9?\x05O\x82\xbc+a\xdb?\xdc\xbey\xf9t\xb6\xd9?\xdc\xbey\xf9t\xb6\xd9?P\xe2\xa5\xa2>\xb8\xdb?\xb2@Bm\xbe/\xdb?\xdc\xbey\xf9t\xb6\xd9?\xdc\xbey\xf9t\xb6\xd9?\xdc\xbey\xf9t\xb6\xd9?4VP\x8d\xe8\n\xdc?V\xd3?\xde\x87\x8a\xdb?\xdc\xbey\xf9t\xb6\xd9?\xdc\xbey\xf9t\xb6\xd9?\xdc\xbey\xf9t\xb6\xd9?\x94sU\n\xdc\xae\xdb?\x16\xaa\x07\xd7\xf8E\xd8?\xefB\xa4\xf2\xd0K\xd5?5\xb2U\x93\xd2\x0e\xd8?A\x81D6\x96\x91\xd8?\xd9\x01\xd4\x02\xce\xd2\xd6?\xeaS~\x8f_\xd2\xd6?R\xc3\xc2\x1e\xbc\xac\xd8?\x1a\xf2\xf2\xb7\xb7\xa4\xd8?\xdc\xbey\xf9t\xb6\xd9?\xc0,\xa5\xd9\xa5\xaa\xd6?\xfd}\xbc{\xbd\x84\xd6?\xdc\xbey\xf9t\xb6\xd9?\x1d\xf0Y\x9cq\x80\xd9?\xdc\xbey\xf9t\xb6\xd9?\x90\xc5\x13\t\x86\xfe\xd7?\xdc\xbey\xf9t\xb6\xd9?\x14\\\xeeA\x91%\xdc?\xd95\xa8v\x08\x82\xd4?\xc0\x0b1\xaf\xe3\x81\xd4?\xdc\xbey\xf9t\xb6\xd9?\xdc\xbey\xf9t\xb6\xd9?\xfcOf\\\xf7\x1e\xd8?\x1e\xb2\xa7\xe7 w\xd4?\xdc\xbey\xf9t\xb6\xd9?\xb6\x10`\xe6h\xa8\xd7?[\xc9m\xad\x90\x9e\xd8?h!\x1c\x851(\xd9?\xe3\x10\xcf\x00\x08w\xd9?\xdc\xbey\xf9t\xb6\xd9?\xdc\xbey\xf9t\xb6\xd9?\xdc\xbey\xf9t\xb6\xd9?:\x9f\x13\x1c\xf2\x12\xd9?\x80\xfeP\x88\x1b\x7f\xd5?J\x91y\xf3y}\xd8?\xe7Rhsb\xee\xd7?\xae\x93`\x05\xf2V\xd9?\xdc\xbey\xf9t\xb6\xd9?\xdc\xbey\xf9t\xb6\xd9?a\xcah\xf8\xe5g\xd8?\xdc\xbey\xf9t\xb6\xd9?\xdc\xbey\xf9t\xb6\xd9?\x86SRs\x85\x9a\xd9?=\xb9\xc3N\x8c\x0e\xd8?\xdc\xbey\xf9t\xb6\xd9?\xdc\xbey\xf9t\xb6\xd9?\xdc\xbey\xf9t\xb6\xd9?L\xee]\x14\xaeg\xd9?|+k\x1e\x9e\x9d\xd8?\xf9\xa6 \xcc\xdaF\xd8?\x05\xa3\x1czK\x97\xd5?\x07\xd5\xf4\x14\xf9\xe1\xd7?\xdc\xbey\xf9t\xb6\xd9?SI\x8e\xe1D\t\xd7?\xd8H:\x80\xb6\x16\xd7?\xb3\xb6\xd8\x13\xf4[\xd7?\xab4\x03\xab\xf9\xce\xd8?7\x8c\xc4\x9b\xa7A\xd9?\x83\x98&T\x89v\xd9?q\x02\xca\xfay\xa2\xd8?P\x9b\xf5Y\x86\xc7\xd8?\xdc\xbey\xf9t\xb6\xd9?\xfb\x82\xe7@\xe7\x05\xd8?\xdc\xbey\xf9t\xb6\xd9?\x96bl\x92\xc4\xb2\xd7?\xdc\xbey\xf9t\xb6\xd9?\xdc\xbey\xf9t\xb6\xd9?9=\xbd99\x15\xd8?z\x8f\x05\x93\xdek\xd8?\xdc\xbey\xf9t\xb6\xd9?\xb1\xb0\xbbn\xd56\xd8?\x1b\xacD\xcd\xf8\xf5\xd7?B\x85}B\xbap\xd9?)st\rRd\xd9?\x14-kW\xc4n\xd9?\xdc\xbey\xf9t\xb6\xd9?\x17\xe5\x9a\xf06)\xd9?\xb9"MP\xd4?\xd7?:++\x0e1\xf9\xd6?\xdc\xbey\xf9t\xb6\xd9?\xa3\xea\xe5\xcdQ\xfc\xd7?\xdc\xbey\xf9t\xb6\xd9?\xdc\xbey\xf9t\xb6\xd9?\xdc\xbey\xf9t\xb6\xd9?#\xf1V[\xaei\xd9?\xfd\xf0;\x8cP<\xd5?f\xe1-\xcc\xda\'\xd3?e\x08i\x80j"\xd8?l\x06v\x8bd\x85\xd1?\xb5\xf5*\x1eiX\xd8?\x80\xd8N\xf752\xd8?\xdc\xbey\xf9t\xb6\xd9?\xdc\xbey\xf9t\xb6\xd9?\x0f\xba|\xb3r\x7f\xd8?\xdc\xbey\xf9t\xb6\xd9?\xdc\xbey\xf9t\xb6\xd9?\xdc\xbey\xf9t\xb6\xd9?^%\x98y\n\xbf\xd6?\xc2%w\xcdO%\xd5?\xe8\x1b\x10\x02W\x97\xd7?\x17\x8cXpC\xca\xd8?\xdc\xbey\xf9t\xb6\xd9?\xdc\xbey\xf9t\xb6\xd9?Z\xf8,\x8e\xa5\xca\xd7?\xdc\xbey\xf9t\xb6\xd9?\xdc\xbey\xf9t\xb6\xd9?;\r\xc1\x98\x9aa\xd9?\xdc\xbey\xf9t\xb6\xd9?\x0f(\xa6F#\x9c\xd7?J;\xc7\xa5\xe4\x18\xd9?\xdc\xbey\xf9t\xb6\xd9?\x82R\xfbDG\x87\xd8?\xb1\xca\x9c\xa1SD\xd8?\xdc\xbey\xf9t\xb6\xd9?\t\xf0\x82/\xe6\r\xd8?\xa2\x85\x12\x16:\x14\xd9?\xd8\x848\xd7~F\xd9?'
p1057
tp1058
ba(lp1059
g15
(g16
(dp1060
g18
g19
(g20
(I0
tp1061
g22
tp1062
Rp1063
(I1
(I3
tp1064
g29
I00
(lp1065
g33
ag34
ag35
atp1066
bsg47
Nstp1067
Rp1068
ag15
(g16
(dp1069
g18
g19
(g20
(I0
tp1070
g22
tp1071
Rp1072
(I1
(I2
tp1073
g29
I00
(lp1074
g36
ag37
atp1075
bsg47
Nstp1076
Rp1077
ag15
(g16
(dp1078
g18
g19
(g20
(I0
tp1079
g22
tp1080
Rp1081
(I1
(I6
tp1082
g29
I00
(lp1083
g38
ag39
ag40
ag41
ag42
ag43
atp1084
bsg47
Nstp1085
Rp1086
ag15
(g16
(dp1087
g18
g19
(g20
(I0
tp1088
g22
tp1089
Rp1090
(I1
(I2
tp1091
g29
I00
(lp1092
g44
ag45
atp1093
bsg47
Nstp1094
Rp1095
a(dp1096
S'0.14.1'
p1097
(dp1098
S'axes'
p1099
g14
sS'blocks'
p1100
(lp1101
(dp1102
S'mgr_locs'
p1103
c__builtin__
slice
p1104
(I0
I3
I1
tp1105
Rp1106
sS'values'
p1107
g68
sa(dp1108
g1103
g1104
(I3
I5
I1
tp1109
Rp1110
sg1107
g329
sa(dp1111
g1103
g1104
(I5
I11
I1
tp1112
Rp1113
sg1107
g340
sa(dp1114
g1103
g1104
(I11
I13
I1
tp1115
Rp1116
sg1107
g1050
sasstp1117
bsb.