ccopy_reg
_reconstructor
p0
(cpandas.core.frame
DataFrame
p1
c__builtin__
object
p2
Ntp3
Rp4
(dp5
S'_metadata'
p6
(lp7
sS'_typ'
p8
S'dataframe'
p9
sS'_data'
p10
g0
(cpandas.core.internals
BlockManager
p11
g2
Ntp12
Rp13
((lp14
cpandas.core.indexes.base
_new_Index
p15
(cpandas.core.indexes.base
Index
p16
(dp17
S'data'
p18
cnumpy.core.multiarray
_reconstruct
p19
(cnumpy
ndarray
p20
(I0
tp21
S'b'
p22
tp23
Rp24
(I1
(I12
tp25
cnumpy
dtype
p26
(S'O8'
p27
I0
I1
tp28
Rp29
(I3
S'|'
p30
NNNI-1
I-1
I63
tp31
bI00
(lp32
S'bday'
p33
aS'bio'
p34
aS'country'
p35
aS'isFam'
p36
aS'isPol'
p37
aS'midname'
p38
aS'money'
p39
aS'name'
p40
aS'profession'
p41
aS'surname'
p42
aS'traintext'
p43
aS'scorePolSimple'
p44
atp45
bsS'name'
p46
Nstp47
Rp48
ag15
(cpandas.core.indexes.numeric
Int64Index
p49
(dp50
g18
g19
(g20
(I0
tp51
g22
tp52
Rp53
(I1
(I190
tp54
g26
(S'i8'
p55
I0
I1
tp56
Rp57
(I3
S'<'
p58
NNNI-1
I-1
I0
tp59
bI00
S'\x00\x00\x00\x00\x00\x00\x00\x00\x02\x00\x00\x00\x00\x00\x00\x00\x04\x00\x00\x00\x00\x00\x00\x00\x05\x00\x00\x00\x00\x00\x00\x00\x07\x00\x00\x00\x00\x00\x00\x00\x0b\x00\x00\x00\x00\x00\x00\x00\x0f\x00\x00\x00\x00\x00\x00\x00\x19\x00\x00\x00\x00\x00\x00\x00\x1d\x00\x00\x00\x00\x00\x00\x00\'\x00\x00\x00\x00\x00\x00\x00)\x00\x00\x00\x00\x00\x00\x00-\x00\x00\x00\x00\x00\x00\x00/\x00\x00\x00\x00\x00\x00\x001\x00\x00\x00\x00\x00\x00\x003\x00\x00\x00\x00\x00\x00\x004\x00\x00\x00\x00\x00\x00\x005\x00\x00\x00\x00\x00\x00\x006\x00\x00\x00\x00\x00\x00\x007\x00\x00\x00\x00\x00\x00\x008\x00\x00\x00\x00\x00\x00\x00<\x00\x00\x00\x00\x00\x00\x00>\x00\x00\x00\x00\x00\x00\x00?\x00\x00\x00\x00\x00\x00\x00@\x00\x00\x00\x00\x00\x00\x00A\x00\x00\x00\x00\x00\x00\x00D\x00\x00\x00\x00\x00\x00\x00E\x00\x00\x00\x00\x00\x00\x00F\x00\x00\x00\x00\x00\x00\x00H\x00\x00\x00\x00\x00\x00\x00J\x00\x00\x00\x00\x00\x00\x00M\x00\x00\x00\x00\x00\x00\x00Q\x00\x00\x00\x00\x00\x00\x00R\x00\x00\x00\x00\x00\x00\x00X\x00\x00\x00\x00\x00\x00\x00Z\x00\x00\x00\x00\x00\x00\x00[\x00\x00\x00\x00\x00\x00\x00]\x00\x00\x00\x00\x00\x00\x00^\x00\x00\x00\x00\x00\x00\x00a\x00\x00\x00\x00\x00\x00\x00e\x00\x00\x00\x00\x00\x00\x00f\x00\x00\x00\x00\x00\x00\x00k\x00\x00\x00\x00\x00\x00\x00n\x00\x00\x00\x00\x00\x00\x00t\x00\x00\x00\x00\x00\x00\x00x\x00\x00\x00\x00\x00\x00\x00y\x00\x00\x00\x00\x00\x00\x00z\x00\x00\x00\x00\x00\x00\x00|\x00\x00\x00\x00\x00\x00\x00~\x00\x00\x00\x00\x00\x00\x00\x7f\x00\x00\x00\x00\x00\x00\x00\x83\x00\x00\x00\x00\x00\x00\x00\x84\x00\x00\x00\x00\x00\x00\x00\x85\x00\x00\x00\x00\x00\x00\x00\x89\x00\x00\x00\x00\x00\x00\x00\x8c\x00\x00\x00\x00\x00\x00\x00\x8e\x00\x00\x00\x00\x00\x00\x00\x8f\x00\x00\x00\x00\x00\x00\x00\x90\x00\x00\x00\x00\x00\x00\x00\x91\x00\x00\x00\x00\x00\x00\x00\x94\x00\x00\x00\x00\x00\x00\x00\x96\x00\x00\x00\x00\x00\x00\x00\x9a\x00\x00\x00\x00\x00\x00\x00\x9b\x00\x00\x00\x00\x00\x00\x00\x9d\x00\x00\x00\x00\x00\x00\x00\x9f\x00\x00\x00\x00\x00\x00\x00\xa2\x00\x00\x00\x00\x00\x00\x00\xa3\x00\x00\x00\x00\x00\x00\x00\xa5\x00\x00\x00\x00\x00\x00\x00\xa8\x00\x00\x00\x00\x00\x00\x00\xac\x00\x00\x00\x00\x00\x00\x00\xad\x00\x00\x00\x00\x00\x00\x00\xae\x00\x00\x00\x00\x00\x00\x00\xb9\x00\x00\x00\x00\x00\x00\x00\xbb\x00\x00\x00\x00\x00\x00\x00\x01\x00\x00\x00\x00\x00\x00\x00\x03\x00\x00\x00\x00\x00\x00\x00\x06\x00\x00\x00\x00\x00\x00\x00\x08\x00\x00\x00\x00\x00\x00\x00\t\x00\x00\x00\x00\x00\x00\x00\n\x00\x00\x00\x00\x00\x00\x00\x0c\x00\x00\x00\x00\x00\x00\x00\r\x00\x00\x00\x00\x00\x00\x00\x0e\x00\x00\x00\x00\x00\x00\x00\x10\x00\x00\x00\x00\x00\x00\x00\x11\x00\x00\x00\x00\x00\x00\x00\x12\x00\x00\x00\x00\x00\x00\x00\x13\x00\x00\x00\x00\x00\x00\x00\x14\x00\x00\x00\x00\x00\x00\x00\x15\x00\x00\x00\x00\x00\x00\x00\x16\x00\x00\x00\x00\x00\x00\x00\x17\x00\x00\x00\x00\x00\x00\x00\x18\x00\x00\x00\x00\x00\x00\x00\x1a\x00\x00\x00\x00\x00\x00\x00\x1b\x00\x00\x00\x00\x00\x00\x00\x1c\x00\x00\x00\x00\x00\x00\x00\x1e\x00\x00\x00\x00\x00\x00\x00\x1f\x00\x00\x00\x00\x00\x00\x00 \x00\x00\x00\x00\x00\x00\x00!\x00\x00\x00\x00\x00\x00\x00"\x00\x00\x00\x00\x00\x00\x00#\x00\x00\x00\x00\x00\x00\x00$\x00\x00\x00\x00\x00\x00\x00%\x00\x00\x00\x00\x00\x00\x00&\x00\x00\x00\x00\x00\x00\x00(\x00\x00\x00\x00\x00\x00\x00*\x00\x00\x00\x00\x00\x00\x00+\x00\x00\x00\x00\x00\x00\x00,\x00\x00\x00\x00\x00\x00\x00.\x00\x00\x00\x00\x00\x00\x000\x00\x00\x00\x00\x00\x00\x002\x00\x00\x00\x00\x00\x00\x009\x00\x00\x00\x00\x00\x00\x00:\x00\x00\x00\x00\x00\x00\x00;\x00\x00\x00\x00\x00\x00\x00=\x00\x00\x00\x00\x00\x00\x00B\x00\x00\x00\x00\x00\x00\x00C\x00\x00\x00\x00\x00\x00\x00G\x00\x00\x00\x00\x00\x00\x00I\x00\x00\x00\x00\x00\x00\x00K\x00\x00\x00\x00\x00\x00\x00L\x00\x00\x00\x00\x00\x00\x00N\x00\x00\x00\x00\x00\x00\x00O\x00\x00\x00\x00\x00\x00\x00P\x00\x00\x00\x00\x00\x00\x00S\x00\x00\x00\x00\x00\x00\x00T\x00\x00\x00\x00\x00\x00\x00U\x00\x00\x00\x00\x00\x00\x00V\x00\x00\x00\x00\x00\x00\x00W\x00\x00\x00\x00\x00\x00\x00Y\x00\x00\x00\x00\x00\x00\x00\\\x00\x00\x00\x00\x00\x00\x00_\x00\x00\x00\x00\x00\x00\x00`\x00\x00\x00\x00\x00\x00\x00b\x00\x00\x00\x00\x00\x00\x00c\x00\x00\x00\x00\x00\x00\x00d\x00\x00\x00\x00\x00\x00\x00g\x00\x00\x00\x00\x00\x00\x00h\x00\x00\x00\x00\x00\x00\x00i\x00\x00\x00\x00\x00\x00\x00j\x00\x00\x00\x00\x00\x00\x00l\x00\x00\x00\x00\x00\x00\x00m\x00\x00\x00\x00\x00\x00\x00o\x00\x00\x00\x00\x00\x00\x00p\x00\x00\x00\x00\x00\x00\x00q\x00\x00\x00\x00\x00\x00\x00r\x00\x00\x00\x00\x00\x00\x00s\x00\x00\x00\x00\x00\x00\x00u\x00\x00\x00\x00\x00\x00\x00v\x00\x00\x00\x00\x00\x00\x00w\x00\x00\x00\x00\x00\x00\x00{\x00\x00\x00\x00\x00\x00\x00}\x00\x00\x00\x00\x00\x00\x00\x80\x00\x00\x00\x00\x00\x00\x00\x81\x00\x00\x00\x00\x00\x00\x00\x82\x00\x00\x00\x00\x00\x00\x00\x86\x00\x00\x00\x00\x00\x00\x00\x87\x00\x00\x00\x00\x00\x00\x00\x88\x00\x00\x00\x00\x00\x00\x00\x8a\x00\x00\x00\x00\x00\x00\x00\x8b\x00\x00\x00\x00\x00\x00\x00\x8d\x00\x00\x00\x00\x00\x00\x00\x92\x00\x00\x00\x00\x00\x00\x00\x93\x00\x00\x00\x00\x00\x00\x00\x95\x00\x00\x00\x00\x00\x00\x00\x97\x00\x00\x00\x00\x00\x00\x00\x98\x00\x00\x00\x00\x00\x00\x00\x99\x00\x00\x00\x00\x00\x00\x00\x9c\x00\x00\x00\x00\x00\x00\x00\x9e\x00\x00\x00\x00\x00\x00\x00\xa0\x00\x00\x00\x00\x00\x00\x00\xa1\x00\x00\x00\x00\x00\x00\x00\xa4\x00\x00\x00\x00\x00\x00\x00\xa6\x00\x00\x00\x00\x00\x00\x00\xa7\x00\x00\x00\x00\x00\x00\x00\xa9\x00\x00\x00\x00\x00\x00\x00\xaa\x00\x00\x00\x00\x00\x00\x00\xab\x00\x00\x00\x00\x00\x00\x00\xaf\x00\x00\x00\x00\x00\x00\x00\xb0\x00\x00\x00\x00\x00\x00\x00\xb1\x00\x00\x00\x00\x00\x00\x00\xb2\x00\x00\x00\x00\x00\x00\x00\xb3\x00\x00\x00\x00\x00\x00\x00\xb4\x00\x00\x00\x00\x00\x00\x00\xb5\x00\x00\x00\x00\x00\x00\x00\xb6\x00\x00\x00\x00\x00\x00\x00\xb7\x00\x00\x00\x00\x00\x00\x00\xb8\x00\x00\x00\x00\x00\x00\x00\xba\x00\x00\x00\x00\x00\x00\x00\xbc\x00\x00\x00\x00\x00\x00\x00\xbd\x00\x00\x00\x00\x00\x00\x00'
p60
tp61
bsg46
Nstp62
Rp63
a(lp64
g19
(g20
(I0
tp65
g22
tp66
Rp67
(I1
(I3
I190
tp68
g29
I00
(lp69
V1956-10-01
p70
aS'NA'
p71
aV1936-09-29
p72
ag71
aV1926-08-13
p73
ag71
aV1966-10-09
p74
ag71
aV1893-12-26
p75
aV1918-07-18
p76
ag71
aV1925-06-29
p77
aV1913-01-09
p78
ag71
ag71
ag71
aV1937-04-28
p79
aV1946-06-14
p80
aV1955-02-14
p81
ag71
ag71
ag71
aV1949-02-14
p82
ag71
aV1977-12-21
p83
aV1975-01-11
p84
aV1954-07-17
p85
aV1952-10-07
p86
ag71
ag71
ag71
aV1874-11-30
p87
ag71
ag71
aV1983-01-08
p88
aV1961-08-04
p89
aV1923-05-27
p90
aV1917-11-19
p91
aV1973-03-09
p92
aV1972-04-09
p93
aV1929-08-24
p94
ag71
ag71
ag71
ag71
ag71
ag71
ag71
aV1947-07-30
p95
ag71
aV1946-07-06
p96
ag71
ag71
ag71
aV1971-12-25
p97
ag71
aV1949-04-20
p98
ag71
aV1879-11-07
p99
ag71
aV1911-02-06
p100
ag71
ag71
aV1986-07-06
p101
aV1977-08-22
p102
ag71
ag71
ag71
aV1966-08-20
p103
aV1925-10-13
p104
ag71
ag71
ag71
aV1917-05-29
p105
aV1986-06-03
p106
aV1939-04-07
p107
aV1964-01-07
p108
aV1966-04-22
p109
aV1961-05-06
p110
aV1960-08-17
p111
aV1947-09-21
p112
aV1955-03-19
p113
ag71
aV1989-07-23
p114
aV1972-09-27
p115
ag71
aV1945-03-23
p116
ag71
aV1974-11-11
p117
ag71
aS'No date found... sorry'
p118
aV1974-07-30
p119
aV1963-12-18
p120
ag71
ag71
aV1972-08-15
p121
aV1971-05-14
p122
ag71
aV1969-11-10
p123
aV1982-07-24
p124
aV1942-06-18
p125
aV1986-08-21
p126
ag71
ag71
ag71
aV1935-12-01
p127
aV1967-06-20
p128
aV1992-11-23
p129
aV1969-11-04
p130
aV1977-04-23
p131
ag71
ag71
aV1971-10-29
p132
ag71
ag71
aV1994-03-01
p133
aV1958-08-25
p134
ag71
ag71
ag71
aV1941-05-24
p135
aV1958-01-26
p136
aV1979-07-23
p137
aV1975-08-07
p138
aV1990-08-15
p139
ag71
aV1937-06-01
p140
aV1969-02-11
p141
aV1952-10-27
p142
aV1990-04-15
p143
aV1984-10-25
p144
aV1948-06-21
p145
aV1966-01-13
p146
aV1980-12-18
p147
ag71
aV1949-08-31
p148
ag71
aV1975-10-05
p149
ag71
ag71
aV1948-09-20
p150
aV1954-02-18
p151
ag71
aV1969-07-24
p152
aV1970-04-29
p153
aV1947-03-25
p154
aV1947-04-12
p155
aV1952-02-07
p156
ag71
aV1969-03-27
p157
aV1985-03-26
p158
aV1946-12-18
p159
ag71
aV1974-03-24
p160
ag71
ag71
ag71
aV1985-02-05
p161
aV1962-11-19
p162
aV1939-03-29
p163
aV1973-06-15
p164
aV1962-07-03
p165
aV1964-09-30
p166
aV1963-03-27
p167
ag71
ag71
aV1969-10-11
p168
ag71
ag71
ag71
aV1967-10-28
p169
aV1981-06-09
p170
aV1975-06-04
p171
aV1965-04-04
p172
ag71
ag71
aV1942-07-13
p173
ag71
ag71
aV1980-10-21
p174
ag71
aV1972-08-30
p175
aV1981-12-02
p176
ag71
aV1958-09-22
p177
aV1991-02-17
p178
ag71
aV1958-03-10
p179
aV1981-08-08
p180
aV1981-09-26
p181
aS'Theresa Mary May (</span>/</span></span>; n\xc3\xa9e\xc2\xa0Brasier; born 1 October 1956) is a British politician serving as Prime Minister of the United Kingdom and Leader of the Conservative Party since 2016. She served as Home Secretary from 2010 to 2016. May was first elected Member of Parliament (MP) for Maidenhead in 1997. Ideologically, she identifies herself as a one-nation conservative.\n'
p182
ag71
aS'Silvio Berlusconi (; born 29 September 1936) is an Italian media tycoon and politician who has served as Prime Minister of Italy in four governments.\n'
p183
ag71
aS'Fidel Alejandro Castro Ruz (; 13 August 1926 \xe2\x80\x93 25 November 2016) was a Cuban communist revolutionary and politician who governed the Republic of Cuba as Prime Minister from 1959 to 1976 and then as President from 1976 to 2008. A Marxist\xe2\x80\x93Leninist and Cuban nationalist, Castro also served as the First Secretary of the Communist Party of Cuba from 1961 until 2011. Under his administration, Cuba became a one-party communist state, while industry and business were nationalized and state socialist reforms were implemented throughout society.\n'
p184
ag71
aS'David William Donald Cameron (born 9 October 1966) is a British politician who served as Prime Minister of the United Kingdom from 2010 to 2016 and Leader of the Conservative Party from 2005 to 2016. He was Member of Parliament (MP) for Witney from 2001 to 2016. He identifies as a one-nation conservative, and has been associated with both economically liberal and socially liberal policies.\n'
p185
ag71
aS"Mao Zedong (December 26, 1893\xc2\xa0\xe2\x80\x93 September 9, 1976), also known as Chairman Mao, was a Chinese communist revolutionary who became the founding father of the People's Republic of China, which he ruled as the Chairman of the Communist Party of China from its establishment in 1949 until his death in 1976. His theories, military strategies, and political policies are collectively known as Maoism.\n"
p186
aS"Nelson Rolihlahla Mandela (</span>/</span></span>; ; 18 July 1918\xc2\xa0\xe2\x80\x93 5 December 2013) was a South African anti-apartheid revolutionary, political leader, and philanthropist who served as President of South Africa from 1994 to 1999. He was the country's first black head of state and the first elected in a fully representative democratic election. His government focused on dismantling the legacy of apartheid by tackling institutionalised racism and fostering racial reconciliation. Ideologically an African nationalist and socialist, he served as President of the African National Congress (ANC) party from 1991 to 1997.\n"
p187
ag71
aS'Giorgio Napolitano,  (; born 29 June 1925) is an Italian politician who served as the 11th President of the Republic from 2006 to 2015, the only Italian President to be reelected to the Presidency. Due to his dominant position in Italian politics, critics often refer to him as Re Giorgio ("King George"). He is the longest serving President in the history of the modern Italian Republic, which has been in existence since 1946.\n'
p188
aS'Richard Milhous Nixon (January 9, 1913 \xe2\x80\x93 April 22, 1994) was the 37th President of the United States from 1969 until 1974 and the only president to resign from the position. He had previously served as the 36th Vice President of the United States from 1953 to 1961, and prior to that as both a U.S. Representative and Senator from California.\n'
p189
ag71
ag71
ag71
aS'Saddam Hussein Abd al-Majid al-Tikriti (</span>/</span></span>; Arabic:  <i lang="ar-Latn" title="DIN 31635 Arabic (Arabic language) transliteration">\xe1\xb9\xa2add\xc4\x81m \xe1\xb8\xa4usayn \xca\xbfAbd al-Ma\xc7\xa7\xc4\xabd al-Tikr\xc4\xabt\xc4\xab; 28 April 1937\xc2\xa0\xe2\x80\x93 30 December 2006) was President of Iraq from 16 July 1979 until 9 April 2003. A leading member of the revolutionary Arab Socialist Ba\'ath Party, and later, the Baghdad-based Ba\'ath Party and its regional organization the Iraqi Ba\'ath Party\xe2\x80\x94which espoused Ba\'athism, a mix of Arab nationalism and socialism\xe2\x80\x94Saddam played a key role in the 1968 coup (later referred to as the 17 July Revolution) that brought the party to power in Iraq.\n'
p190
aS'Donald John Trump (born June 14, 1946) is the 45th and current President of the United States. Before entering politics, he was a businessman and television personality.\n'
p191
aS'Virginio Merola (born February 14, 1955 in Santa Maria Capua Vetere) is an Italian politician. Merola is a member of the Democratic Party and the current mayor of Bologna.\n'
p192
ag71
ag71
ag71
aS"Richard Edmund Neal (born February 14, 1949) is an American politician and the U.S. Representative for Massachusetts's 1st congressional district. He is a member of the Democratic Party and a former city councilor and mayor of Springfield, Massachusetts. He is currently the dean of the Massachusetts delegation to the House of Representatives.\n"
p193
ag71
aS'Emmanuel Jean-Michel Fr\xc3\xa9d\xc3\xa9ric Macron (; born 21 December 1977) is a French politician serving as President of France since 2017. He previously was Minister of the Economy, Industry and Digital Affairs from 2014 to 2016.\n'
p194
aS'Matteo Renzi (; born 11 January 1975) is an Italian politician who served as the Prime Minister of Italy from February 2014 until December 2016. After the rejection of his constitutional reform in the December 2016 referendum, Renzi formally resigned on 12 December when Foreign Affairs Minister Paolo Gentiloni was appointed new head of the government by President Sergio Mattarella. His government is the fourth longest one in the history of Italy as a republic. Renzi served as President of the Province of Florence from 2004 to 2009 and as Mayor of Florence from 2009 to 2014.\n'
p195
aS'Angela Dorothea Merkel (</span>/</span></span>; ; n\xc3\xa9e Kasner, born 17 July 1954) is a German politician serving as Chancellor of Germany since 2005 and leader of the centre-right Christian Democratic Union (CDU) since 2000. Merkel has been widely described as the de facto leader of the European Union, the most powerful woman in the world, and the leader of the Free World.\n'
p196
aS'Vladimir Vladimirovich Putin (</span>/</span></span>; Russian: , ; born 7 October 1952) is a Russian politician and former intelligence officer serving as President of Russia since 2012, previously holding the position from 2000 until 2008. In between his presidential terms he was also the Prime Minister of Russia under his close associate Dmitry Medvedev.\n'
p197
ag71
ag71
ag71
aS'Sir Winston Leonard Spencer-Churchill (30 November 1874\xc2\xa0\xe2\x80\x93 24 January 1965) was a British politician, statesman, army officer, and writer, who was Prime Minister of the United Kingdom from 1940 to 1945 and again from 1951 to 1955. As Prime Minister, Churchill led Britain to victory in the Second World War. Churchill represented five constituencies during his career as Member of Parliament (MP). Ideologically an economic liberal and British imperialist, he began and ended his parliamentary career as a member of the Conservative Party, which he led from 1940 to 1955, but for twenty years from 1904 he was a prominent member of the Liberal Party.\n'
p198
ag71
ag71
aS"Kim Jong-un (officially transcribed Kim Jong Un; Chos\xc5\x8fn'g\xc5\xadl:\xc2\xa0; ; born 8 January 1983) is a North Korean politician serving as Supreme Leader of North Korea since 2011 and Leader of the Workers' Party of Korea since 2012. Kim is the second child of Kim Jong-il (1941\xe2\x80\x932011) and Ko Yong-hui (1952\xe2\x80\x932004). The grandson of Kim Il-sung, the first leader of North Korea from 1948 to 1994, he is the first North Korean leader to have been born after the country's founding.\n"
p199
aS'Barack Hussein Obama II (</span> <wbr/></span> <wbr/></span>/</span></span>; born August 4, 1961) is an American politician who served as the 44th President of the United States from 2009 to 2017. A member of the Democratic Party, he was the first African American to be elected to the presidency and previously served as a United States Senator from Illinois (2005\xe2\x80\x932008).\n'
p200
aS'Henry Alfred Kissinger (</span>/</span></span>; ; born Heinz Alfred Kissinger; May 27, 1923) is an American statesman, political scientist, diplomat and geopolitical consultant who served as United States Secretary of State and National Security Advisor under the presidential administrations of Richard Nixon and Gerald Ford. A Jewish refugee who fled Nazi Germany with his family in 1938, he became National Security Advisor in 1969 and U.S. Secretary of State in 1973. For his actions negotiating a ceasefire in Vietnam, Kissinger received the 1973 Nobel Peace Prize under controversial circumstances, with two members of the committee resigning in protest. Kissinger later sought, unsuccessfully, to return the prize after the ceasefire failed.\n'
p201
aS'Indira Priyadarshini Gandhi (; n\xc3\xa9e Nehru; November 19, 1917 \xe2\x80\x93 October 31, 1984), was an Indian politician, stateswoman and a central figure of the Indian National Congress. She was the first and, to date, the only female Prime Minister of India. Indira Gandhi was the daughter of Jawaharlal Nehru, the first prime minister of India. Despite her surname Gandhi, she is not related to the family of Mahatma Gandhi; Gandhi is a common surname in Gujarat. She served as Prime Minister from January 1966 to March 1977 and again from January 1980 until her assassination in October 1984, making her the second longest-serving Indian Prime Minister after her father.\n'
p202
aS'Matteo Salvini (; born 9 March 1973) is an Italian politician serving as Deputy Prime Minister of Italy and Minister of the Interior since 1 June 2018. He has also been Federal Secretary of Northern League since December 2013 and the leader of Us with Salvini since December 2014. He has been a Senator in the Italian Senate since March 2018. He previously served as a Member of the European Parliament (MEP) for the constituency of North-West Italy from 2004 to 2018.\n'
p203
aS"Alain Berset (born 9 April 1972) is a Swiss politician of the Social Democratic Party. Since 1 January 2012, he is a member of the Swiss Federal Council, the seven member Swiss executive, and head of the Federal Department of Home Affairs (the Swiss interior minister). On 1 January 2018, he took office as President of the Swiss Confederation, head of the Federal Council; at age 45, Berset is the youngest President of the Confederation since Marcel Pilet-Golaz in 1934. Before being elected to the Federal Council in December 2011, he was a member of the Swiss Council of States for the Canton of Fribourg since 2003, serving as the chamber's president during the 2008/2009 term.\n"
p204
aS'Mohammed Yasser Abdel Rahman Abdel Raouf Arafat al-Qudwa al-Husseini (</span>, <wbr/></span>/</span></span>; Arabic: \xe2\x80\x8e\xe2\x80\x8e; 24 August 1929 \xe2\x80\x93 11 November 2004), popularly known as Yasser Arafat (Arabic: \xe2\x80\x8e\xc2\xa0, <i lang="ar-Latn" title="Arabic-language transliteration">Y\xc4\x81sir `Araf\xc4\x81t) or by his kunya Abu Ammar (Arabic: \xe2\x80\x8e\xc2\xa0, <i lang="ar-Latn" title="Arabic-language transliteration">\'Ab\xc5\xab `Amm\xc4\x81r), was a Palestinian political leader. He was Chairman of the Palestine Liberation Organization (PLO) from 1969 to 2004 and President of the Palestinian National Authority (PNA) from 1994 to 2004. Ideologically an Arab nationalist, he was a founding member of the Fatah political party, which he led from 1959 until 2004.\n'
p205
ag71
ag71
ag71
ag71
ag71
ag71
ag71
aS'Arnold Alois Schwarzenegger (</span>/</span></span>; ; born July 30, 1947) is an Austrian-American actor, filmmaker, businessman, investor, author, philanthropist, activist, politician, and former professional bodybuilder and powerlifter. He served two terms as the 38th Governor of California from 2003 to 2011.\n'
p206
ag71
aS'George Walker Bush (born July 6, 1946) is an American politician who served as the 43rd President of the United States from 2001 to 2009. He had previously served as the 46th Governor of Texas from 1995 to 2000.\n'
p207
ag71
ag71
ag71
aS'Justin Pierre James Trudeau  (</span>/</span></span>; ; born December 25, 1971) is a Canadian politician serving as the 23rd and current Prime Minister of Canada since 2015 and Leader of the Liberal Party since 2013. Trudeau is the second-youngest Canadian Prime Minister, after Joe Clark; he is also the first to be related to a previous holder of the post, as the eldest son of Pierre Trudeau.\n'
p208
ag71
aS"Massimo D'Alema (; born 20 April 1949) is an Italian politician who was the 53rd Prime Minister from 1998 to 2000. Later he was Deputy Prime Minister and Minister of Foreign Affairs from 2006 to 2008. He is also a journalist and served for a time as national secretary of the Democratic Party of the Left (PDS). \nSometimes media refers to him as Leader Maximo, due to his first name Massimo, but also for his dominant position in the left-wing coalitions during the Second Republic. Earlier in his career he was a member of the Italian Communist Party, and he was the first former communist to become prime minister of a NATO country.\n"
p209
ag71
aS'Leon Trotsky (</span>/</span></span>; born Lev Davidovich Bronstein; 7 November\xc2\xa0[O.S. 26 October]\xc2\xa01879 \xe2\x80\x93 21 August 1940) was a Russian revolutionary, Marxist theorist, and Soviet politician whose particular strain of Marxist thought is known as Trotskyism.\n'
p210
ag71
aS'Ronald Wilson Reagan (</span>/</span></span>; February 6, 1911\xc2\xa0\xe2\x80\x93 June 5, 2004) was an American politician and actor who served as the 40th President of the United States from 1981 to 1989. Prior to the presidency, he was a Hollywood actor and trade union leader before serving as the 33rd Governor of California from 1967 to 1975.\n'
p211
ag71
ag71
aS'Luigi Di Maio (; born 6 July 1986) is an Italian politician serving as Deputy Prime Minister of Italy and Minister of Economic Development, Labour and Social Policies since 1 June 2018. He previously served as Vice President of the Chamber of Deputies in the XVII Italian legislature. He is the leader of the Five Star Movement, an anti-establishment party founded by Beppe Grillo.\n'
p212
aS'Jonas Kocher is a musician and composer born in Nyon (Switzerland) in 1977. He is based in Biel/Bienne (Switzerland) since the late 1990s. \n'
p213
ag71
ag71
ag71
aS'Enrico Letta (; born 20 August 1966) is an Italian politician who was Prime Minister of Italy from 2013 to 2014, leading a grand coalition comprising the centre-left Democratic Party, the centre-right People of Freedom, and the centrist Civic Choice. He has also been a Member of the Chamber of Deputies since 2006. Letta was Minister of European Affairs from 1998 to 1999 and Minister of Industry from 1999 to 2001, and served as Secretary to the Council of Ministers from 2006 to 2008.\n'
p214
aS'Margaret Hilda Thatcher, Baroness Thatcher,  (n\xc3\xa9e\xc2\xa0Roberts; 13 October 1925\xc2\xa0\xe2\x80\x93 8 April 2013) was a British stateswoman who served as Prime Minister of the United Kingdom from 1979 to 1990 and Leader of the Conservative Party from 1975 to 1990. She was the longest-serving British prime minister of the 20th century and the first woman to hold that office. A Soviet journalist dubbed her "The \'Iron Lady", a nickname that became associated with her uncompromising politics and leadership style. As Prime Minister, she implemented policies known as Thatcherism.\n'
p215
ag71
ag71
ag71
aS'John Fitzgerald "Jack" Kennedy (May 29, 1917 \xe2\x80\x93 November 22, 1963), commonly referred to by his initials JFK, was an American politician who served as the 35th President of the United States from January 1961 until his assassination in November 1963. He served at the height of the Cold War, and the majority of his presidency dealt with managing relations with the Soviet Union. A member of the Democratic Party, Kennedy represented Massachusetts in the U.S. House of Representatives and Senate prior to becoming president.\n'
p216
aS"Rafael Nadal Parera (, ; born 3 June 1986) is a Spanish professional tennis player, currently world No. 2 in men's singles tennis by the Association of Tennis Professionals (ATP).\n"
p217
aS'Francis Ford Coppola (</span>/</span></span>; born April 7, 1939) is an American film director, producer, screenwriter and film composer. He was a central figure in the New Hollywood wave of filmmaking.\n'
p218
aS"Nicolas Kim Coppola (born January 7, 1964), known professionally as Nicolas Cage, is an American actor, director and producer. During his early career, Cage starred in a variety of films such as Valley Girl (1983), Racing with the Moon (1984), Birdy (1984), Peggy Sue Got Married (1986), Raising Arizona (1987), Moonstruck (1987), Vampire's Kiss (1989), Wild at Heart (1990), Fire Birds (1990), Honeymoon in Vegas (1992), and Red Rock West (1993).\n"
p219
aS"Jeffrey Dean Morgan (born April 22, 1966) is an American actor. He is known for his roles as John Winchester on the fantasy horror series Supernatural (2005\xe2\x80\x9307), Denny Duquette on the medical drama series Grey's Anatomy (2006\xe2\x80\x9309), The Comedian in the superhero film Watchmen (2009), Jason Crouse on the political drama series The Good Wife (2015\xe2\x80\x9316), Negan on the horror drama series The Walking Dead (2016\xe2\x80\x93present), and Harvey Russell in Rampage (2018).\n"
p220
aS'George Timothy Clooney (born May 6, 1961) is an American actor, filmmaker and businessman. He is the recipient of three Golden Globe Awards and two Academy Awards, one for acting in Syriana (2006) and the other for co-producing Argo (2012). In 2018, he was the recipient of the AFI Live Achievement Award, at the age of 57.\n'
p221
aS'Sean Justin Penn (born August 17, 1960) is an American actor and filmmaker. He has won two Academy Awards, for his roles in the mystery drama Mystic River (2003) and the biopic Milk (2008).\n'
p222
aS'Stephen Edwin King (born September 21, 1947) is an American author of horror, supernatural fiction, suspense, science fiction and fantasy. His books have sold more than 350 million copies, many of which have been adapted into feature films, miniseries, television series, and comic books. King has published 58 novels, including seven under the pen name Richard Bachman, and six non-fiction books. He has written around 200 short stories, most of which have been published in book collections.\n'
p223
aS'Walter Bruce Willis (born March 19, 1955) is an American actor, producer, and singer. Born to a German mother and American father in Idar-Oberstein, Germany, he moved to the United States with his family in 1957. His career began on the Off-Broadway stage in the 1970s. He later achieved fame with his leading role on the hit television series Moonlighting (1985\xe2\x80\x9389). He has since appeared in over 70 films and is widely regarded as an "action hero" due to his portrayal of John McClane in the Die Hard franchise (1988\xe2\x80\x932013), and other such roles.\n'
p224
ag71
aS'Daniel Jacob Radcliffe (born 23 July 1989) is an English actor and producer best known for his role as the titular protagonist in the Harry Potter film series, based on the novels by J. K. Rowling.\n'
p225
aS'Gwyneth Paltrow (</span>/</span></span>; born September 27, 1972) is an American actress, businesswoman, socialite, lifestyle guru, singer, and food writer. She has won various accolades, including an Academy Award, a Golden Globe Award, a Primetime Emmy Award and two Screen Actors Guild Awards.\n'
p226
ag71
aS'Francesco "Franco" Battiato (; born 23 March 1945, Ionia, Sicily) is an Italian singer-songwriter, composer, filmmaker and, under the pseudonym S\xc3\xbcphan Barzani, also a painter. Battiato\'s songs contain esoteric, philosophical and religious themes.\n'
p227
ag71
aS'Leonardo Wilhelm DiCaprio (</span>/</span></span>; born November 11, 1974) is an American actor, film producer, and environmentalist. DiCaprio began his career by appearing in television commercials in the late 1980s. He next had recurring roles in various television series, such as the soap opera Santa Barbara and the sitcom Growing Pains.\n'
p228
ag71
aS'Suresh Singh Rawat is an Indian politician from the Bharatiya Janata Party and a  member of the Rajasthan Legislative Assembly representing the Pushkar Vidhan Sabha constituency of Rajasthan.\n'
p229
aS'Hilary Ann Swank (born July 30, 1974) is an American actress and producer. She has received two Academy Awards, two Golden Globe Awards, two Critics Choice Awards, and a Screen Actors Guild Award.\n'
p230
aS'William Bradley Pitt (born December 18, 1963) is an American actor and film producer. He has received multiple awards and nominations including an Academy Award as producer under his own company Plan B Entertainment.\n'
p231
ag71
ag71
aS'Benjamin G\xc3\xa9za Affleck-Boldt (born August 15, 1972) is an American actor and filmmaker. His accolades include two Academy Awards, three Golden Globe Awards, two BAFTA Awards, and two Screen Actors Guild Awards. He began his career as a child and starred in the PBS educational series The Voyage of the Mimi in 1984, before a second run in 1988. He later appeared in the independent coming-of-age comedy Dazed and Confused (1993) and various Kevin Smith films, including Chasing Amy (1997) and Dogma (1999). Affleck gained wider recognition when he and childhood friend Matt Damon won the Golden Globe and Academy Award for Best Original Screenplay for writing Good Will Hunting (1997), which they also starred in. He then established himself as a leading man in studio films, including the disaster drama Armageddon (1998), the romantic comedy Forces of Nature (1999), the war drama Pearl Harbor (2001), and the spy thriller The Sum of All Fears (2002).\n'
p232
aS'Sofia Carmina Coppola (</span>/</span></span>; born May 14, 1971) is an American screenwriter, director, producer, and former actress.\n'
p233
ag71
aS'Ellen Kathleen Pompeo (born November 10, 1969) is an American actress, director, and producer. She is one of the highest paid television actors, having signed a $20 million annual contract with the American Broadcasting Company in late 2017. She was honored with the 2007 Special Achievement in Entertaining by the National Italian American Foundation for her contributions to the entertainment industry.\n'
p234
aS'Anna Helene Paquin (</span>/</span></span> <i title="English pronunciation respelling">-win; born 24 July 1982) is a New Zealand-Canadian-American  actress. She was born in Manitoba and brought up in Wellington, New Zealand, before moving to Los Angeles during her youth. She completed a year at Columbia University before leaving to focus on her acting career. As a child, she played the role of Flora McGrath in Jane Campion\'s romantic drama film The Piano (1993), despite having had little acting experience. For her performance, she received the Academy Award for Best Supporting Actress at the age of 11, making her the second-youngest winner in Oscar history.\n'
p235
aS'Sir James Paul McCartney  (born 18 June 1942) is an English singer-songwriter, multi-instrumentalist, and composer. He gained worldwide fame as the bass guitarist and singer for the rock band the Beatles, widely considered the most popular and influential group in the history of popular music. His songwriting partnership with John Lennon remains the most successful in history. After the group disbanded in 1970, he pursued a solo career and formed the band Wings with his first wife, Linda, and Denny Laine.\n'
p236
aS'Usain St Leo Bolt  (</span>/</span></span>; born 21 August 1986) is a Jamaican retired sprinter and world record holder in the 100 metres, 200 metres and 4 \xc3\x97 100 metres relay. His reign as Olympic Games champion in all of these events spans three Olympics. Owing to his achievements and dominance in sprint competition, he is widely considered to be the greatest sprinter of all time.\n'
p237
ag71
ag71
ag71
aS'Heywood "Woody" Allen  (born Allan Stewart Konigsberg; December 1, 1935) is an American director, writer, actor, and comedian whose career spans more than six decades. He began his career as a comedy writer in the 1950s, writing jokes and scripts for television and publishing several books of short humor pieces. In the early 1960s, Allen began performing as a stand-up comedian, emphasizing monologues rather than traditional jokes. As a comedian, he developed the persona of an insecure, intellectual, fretful nebbish, which he maintains is quite different from his real-life personality. In 2004, Comedy Central ranked Allen fourth on a list of the 100 greatest stand-up comedians, while a UK survey ranked Allen as the third-greatest comedian.\n'
p238
aS'Nicole Mary Kidman  (born 20 June 1967) is an Australian actress and producer. She is the recipient of multiple awards, including an Academy Award, two Primetime Emmy Awards, five Golden Globe Awards, the Silver Bear for Best Actress, and a Cannes Film Festival special award.\n'
p239
aS'Miley Ray Cyrus (born Destiny Hope Cyrus; November 23, 1992) is an American singer, songwriter, and actress. After playing minor roles in the television series Doc and the film Big Fish in her childhood, she became a teen idol starring as the character Miley Stewart on the Disney Channel television series Hannah Montana in 2006. Her father Billy Ray Cyrus also starred on the series, which aired for four seasons until 2011.\n'
p240
aS"Matthew David McConaughey (</span>/</span></span>; born November 4, 1969)  is an American actor and producer. He first gained notice for his breakout role in the coming-of-age comedy Dazed and Confused (1993), before going on to appear in the slasher film Texas Chainsaw Massacre: The Next Generation (1994), A Time to Kill (1996), the comedy film Larger than Life (1996), Steven Spielberg's historical drama Amistad (1997), the science fiction drama Contact (1997), the comedy EDtv (1999), and the war film U-571 (2000).\n"
p241
aS"John William Oliver (born 23 April 1977) is an English comedian, writer, producer, political commentator, actor, and television host. Oliver started his career as a stand-up comedian, both in the United Kingdom and United States. He came to wider attention for his work on The Daily Show with Jon Stewart as its senior British correspondent from 2006 to 2013. Oliver won three Primetime Emmy Awards for his work as a writer on The Daily Show and was its guest host for an eight-week period in 2013. In addition to The Daily Show, Oliver co-hosted the satirical comedy podcast The Bugle (2007\xe2\x80\x932015) with Andy Zaltzman, with whom Oliver had previously co-hosted the radio series Political Animal, and hosted John Oliver's New York Stand-Up Show on Comedy Central from 2010 to 2013. He has also acted on television, most notably in a recurring role as Ian Duncan on the NBC sitcom Community.\n"
p242
ag71
ag71
aS"Winona Ryder (born Winona Laura Horowitz; October 29, 1971) is an American actress and film producer. One of the most successful and iconic actresses of the 1990s, she made her film debut in  Lucas (1986). As Lydia Deetz, a goth teenager in Tim Burton's Beetlejuice (1988), she garnered critical acclaim and widespread recognition. After appearances in film and on television, Ryder continued her acting career with the cult film Heathers (1988), a controversial satire that has since become a landmark teen film. She later appeared in the coming of age drama Mermaids (1990), earning a Golden Globe Award nomination, and in the same year appeared alongside Johnny Depp in Burton's dark fairy-tale Edward Scissorhands (1990), and shortly thereafter opposite Gary Oldman in Francis Ford Coppola's gothic horror romance Bram Stoker's Dracula (1992).\n"
p243
ag71
ag71
aS'Justin Drew Bieber (</span>/</span></span>; born March 1, 1994) is a Canadian singer-songwriter. After talent manager Scooter Braun discovered him through his YouTube videos covering songs in 2008 and he signed to RBMG, Bieber released his debut EP, My World, in late 2009. It was certified platinum in the US. He became the first artist to have seven songs from a debut record chart on the Billboard Hot 100. Bieber released his first full-length studio album, My World 2.0, in 2010. It debuted at number one in several countries, was certified triple platinum in the US, and contained his single "Baby".\n'
p244
aS"Timothy Walter Burton (born August 25, 1958) is an American film director, producer, artist, writer, and animator. He is known for his dark, gothic, and eccentric horror and fantasy films such as Beetlejuice (1988), Edward Scissorhands (1990), The Nightmare Before Christmas (1993), Ed Wood (1994), Sleepy Hollow (1999), Corpse Bride (2005), Sweeney Todd: The Demon Barber of Fleet Street (2007), Dark Shadows (2012), and Frankenweenie (2012). He is also known for blockbusters such as the adventure comedy Pee-wee's Big Adventure (1985), the superhero films Batman (1989) and its first sequel Batman Returns (1992), the sci-fi film Planet of the Apes (2001), the fantasy drama Big Fish (2003), the musical adventure film Charlie and the Chocolate Factory (2005), and the fantasy film Alice in Wonderland (2010).\n"
p245
ag71
ag71
ag71
aS'Bob Dylan (born Robert Allen Zimmerman, May 24, 1941) is an American singer-songwriter, author, and artist who has been an influential figure in popular music and culture for more than five decades. Much of his most celebrated work dates from the 1960s, when he became a reluctant "voice of a generation" with songs such as "Blowin\' in the Wind" and "The Times They Are a-Changin\'" which became anthems for the Civil Rights Movement and anti-war movement. In 1965, he controversially "went electric", branching out from his earlier work and alienating some fans of the American folk music revival, recording a six-minute single, "Like a Rolling Stone", which enlarged the scope of popular music.\n'
p246
aS'Ellen Lee DeGeneres (</span>/</span></span> <i title="English pronunciation respelling">d\xc9\x99--\xc9\x99r-\xc9\x99s; born January 26, 1958) is an American comedian, television host, actress, writer, producer, and LGBT activist. She starred in the popular sitcom Ellen from 1994 to 1998 and has hosted her syndicated TV talk show, The Ellen DeGeneres Show, since 2003.\n'
p247
aS'Alessandro Agostini (born 23 July 1979) is an Italian retired footballer who played as a defender.\n'
p248
aS'Charlize Theron (</span> <wbr/></span>/</span></span> <i title="English pronunciation respelling">shar- -\xc9\x99n; ; born 7 August 1975) is a South African-American actress and film producer. She is the recipient of several accolades, including an Academy Award, a Golden Globe Award, and the Silver Bear for Best Actress.\n'
p249
aS'Jennifer Shrader Lawrence (born August 15, 1990) is an American actress. Her films have grossed over $5.7 billion worldwide, and she was the highest-paid actress in the world in 2015 and 2016. Lawrence appeared in Time 100 most influential people in the world list in 2013 and in the Forbes Celebrity 100 list in 2014 and 2016.\n'
p250
ag71
aS'Morgan Freeman (born June 1, 1937) is an American actor, producer, and narrator. Freeman won an Academy Award in 2005 for Best Supporting Actor with Million Dollar Baby (2004), and he has received Oscar nominations for his performances in Street Smart (1987), Driving Miss Daisy (1989), The Shawshank Redemption (1994), and Invictus (2009). He has also won a Golden Globe Award and a Screen Actors Guild Award.\n'
p251
aS'Jennifer Joanna Aniston (born February 11, 1969) is an American actress, film producer, and businessperson. She is the daughter of Greek-born actor John Aniston and American actress Nancy Dow. Aniston gained worldwide recognition for portraying Rachel Green on the television sitcom Friends (1994\xe2\x80\x932004), a role which earned her a Primetime Emmy Award, a Golden Globe Award, and a Screen Actors Guild Award (SAG). The character was widely popular during the airing of the series and was later recognized as one of the greatest female characters in American television.\n'
p252
aS"Roberto Remigio Benigni,  (; born 27 October 1952) is an Italian actor, comedian, screenwriter and director.  He co-wrote, directed and acted in the 1997 film Life Is Beautiful, which won him the Academy Award for Best Actor at the 71st Oscars Ceremony. He also portrayed Inspector Clouseau's son in Son of the Pink Panther (1993) and has collaborated with filmmaker Jim Jarmusch in three of his films: Down by Law (1986), Night on Earth (1991) and Coffee and Cigarettes (2003).\n"
p253
aS'Emma Charlotte Duerre Watson (born 15 April 1990) is an English actress, model, and activist. Born in Paris and brought up in Oxfordshire, Watson attended the Dragon School and trained as an actress at the Oxford branch of Stagecoach Theatre Arts. As a child artist, she rose to prominence after landing her first professional acting role as Hermione Granger in the Harry Potter film series, having acted only in school plays previously. Watson appeared in all eight Harry Potter films from 2001 to 2011, earning worldwide fame, critical accolades, and around $60\xc2\xa0million.\n'
p254
aS'Katheryn Elizabeth Hudson (born October 25, 1984), known professionally as Katy Perry, is an American singer, songwriter, and television personality. After singing in church during her childhood, she pursued a career in gospel music as a teenager. Perry signed with Red Hill Records and released her debut studio album Katy Hudson under her birth name in 2001, which was commercially unsuccessful. She moved to Los Angeles the following year to venture into secular music after Red Hill ceased operations and she subsequently began working with producers Glen Ballard, Dr. Luke, and Max Martin. After adopting the stage name Katy Perry and being dropped by The Island Def Jam Music Group and Columbia Records, she signed a recording contract with Capitol Records in April 2007.\n'
p255
aS'Ian Russell McEwan  (born 21 June 1948) is an English novelist and screenwriter. In 2008, The Times featured him on their list of "The 50 greatest British writers since 1945" and The Daily Telegraph ranked him number 19 in their list of the "100 most powerful people in British culture".\n'
p256
aS'Patrick Galen Dempsey (born January 13, 1966) is a Scottish American actor, best known for his role as neurosurgeon Derek "McDreamy" Shepherd in Grey\'s Anatomy, starring with Ellen Pompeo (Dr. Meredith Grey). He saw early success as an actor, starring in a number of films in the 1980s, including Can\'t Buy Me Love (1987) and Loverboy (1989). In the 1990s, he mostly appeared in smaller roles in film, such as Outbreak (1995) and television, before landing a lead role in Sweet Home Alabama (2002), a surprise box office hit. He has since starred in other films, including Enchanted (2007), Made of Honor (2008), Valentine\'s Day (2010), Flypaper (2011), Freedom Writers (2007), Transformers: Dark of the Moon (2011), and Bridget Jones\'s Baby (2016).\n'
p257
aS"Christina Mar\xc3\xada Aguilera (; born December 18, 1980)  is an American singer, songwriter, actress and television personality. Her work has earned her five Grammy Awards, one Latin Grammy Award, and a star on the Hollywood Walk of Fame. She has sold more than 75 million records worldwide, making her one of the world's best-selling music artists. In 2009, she ranked at number 58 on Rolling Stones list of 100 Greatest Singers of All Time, thereby becoming the youngest and the only artist under 30 to be named. Billboard recognized her as the 20th most successful artist of the 2000s, and in 2013, Time included Aguilera on their annual list of the 100 most influential people in the world.\n"
p258
ag71
aS'Richard Tiffany Gere (IPA: </span>/</span></span>, pronunciation respelling: <i title="English pronunciation respelling">geer; born August 31, 1949) is an American actor. He began in films in the 1970s, playing a supporting role in Looking for Mr. Goodbar (1977) and a starring role in Days of Heaven (1978). He came to prominence with his role in the film American Gigolo (1980), which established him as a leading man and a sex symbol. He went on to star in many well-received films, including An Officer and a Gentleman (1982), The Cotton Club (1984), Pretty Woman (1990), Primal Fear (1996), Runaway Bride (1999), I\'m Not There (2007), Arbitrage (2012) and Norman: The Moderate Rise and Tragic Fall of a New York Fixer (2016). For portraying Billy Flynn in the Academy Award-winning musical Chicago (2002), he won a Golden Globe Award and a Screen Actors Guild Award as part of the cast.\n'
p259
ag71
aS'Kate Elizabeth Winslet,  (born 5 October 1975) is an English actress. She is particularly known for her work in period dramas and tragedies, and is often drawn to portraying troubled women. Winslet is the recipient of several accolades, including three British Academy Film Awards, and is among the few performers to have won Academy, Emmy, and Grammy Awards.\n'
p260
ag71
ag71
aS''
p261
aS'John Joseph Travolta (born February 18, 1954) is an American actor, film producer, dancer, singer and pilot. Travolta first became known in the 1970s, after appearing on the television series Welcome Back, Kotter (1975\xe2\x80\x931979) and starring in the box office successes Saturday Night Fever (1977) and Grease (1978). His acting career declined through the 1980s, but enjoyed a resurgence in the 1990s with his role in Pulp Fiction (1994), and he has since starred in films such as Get Shorty, Broken Arrow, Face/Off, Swordfish, Be Cool, Wild Hogs, Hairspray, and The Taking of Pelham 123.\n'
p262
ag71
aS'Jennifer Lynn Lopez (born July 24, 1969) is an American singer, actress, dancer and producer. In 1991, Lopez began appearing as a Fly Girl dancer on In Living Color, where she remained a regular until she decided to pursue an acting career in 1993. For her first leading role in the 1997 Selena biopic of the same name, Lopez received a Golden Globe nomination and became the first Latin actress to earn over US$1 million for a film. She went on to star in Anaconda (1997) and Out of Sight (1998), later establishing herself as the highest-paid Latin actress in Hollywood.\n'
p263
aS"Uma Karuna Thurman (born April 29, 1970) is an American actress and model. She has performed in a variety of films, ranging from romantic comedies and dramas to science fiction and action movies. Following her appearances on the December 1985 and May 1986 covers of British Vogue, Thurman starred in Dangerous Liaisons (1988).  She rose to international prominence with her performance in Pulp Fiction (1994), for which she was nominated for the Academy Award, the BAFTA Award, and the Golden Globe Award for Best Supporting Actress. Often hailed as Quentin Tarantino's muse, she reunited with the director to play the main role in both Kill Bill films (2003\xe2\x80\x932004), which brought her two additional Golden Globe Award nominations.\n"
p264
aS'Sir Elton Hercules John  (born Reginald Kenneth Dwight, 25 March 1947) is an English singer, pianist, and composer. He has worked with lyricist Bernie Taupin as his songwriting partner since 1967; they have collaborated on more than 30 albums. John has sold more than 300million records, making him one of the best-selling music artists in the world. He has more than fifty Top 40 hits, including seven consecutive number one albums in the U.S., 58 Billboard Top 40 singles, 27 Top 10, four which reached number two and nine which reached number one. His tribute single "Candle in the Wind 1997", rewritten in dedication to Diana, Princess of Wales, sold over 33million copies worldwide and is the best-selling single in the history of the UK and U.S. singles charts. He has also composed music, produced records, and has occasionally acted in films.\n'
p265
aS"David Michael Letterman (born April 12, 1947) is an American television host, comedian, writer, and producer. He hosted late night television talk shows for 33 years, beginning with the February 1, 1982, debut of Late Night with David Letterman on NBC, and ending with the May 20, 2015, broadcast of Late Show with David Letterman on CBS. In total, Letterman hosted 6,028 episodes of Late Night and Late Show, surpassing friend and mentor Johnny Carson as the longest-serving late night talk show host in American television history. In 1996 Letterman was ranked 45th on TV Guides 50 Greatest TV Stars of All Time. In 2002, The Late Show with David Letterman was ranked seventh on TV Guide's 50 Greatest TV Shows of All Time.\n"
p266
aS'<br/>\nVasco Rossi (born 7 February 1952), also known as Vasco or with the nickname Il Blasco, is an Italian singer-songwriter. During his career, he has published 30 albums (not including unofficial releases) and has written over 250 songs, as well as lyrics for other artists.  He calls himself a "provoca(u)tore" (an Italian portmanteau for "provoking author") as throughout his career he has been regularly criticized over his choice of lifestyle and the lyrics in his songs. With more than 35 millions of copies sold, he is one of the best-selling Italian singers.\n'
p267
ag71
aS'Mariah Carey (born March 27, 1969 or 1970) is an American singer and songwriter. Referred to as the "Songbird Supreme" by the Guinness World Records, she is noted for her five-octave vocal range, power, melismatic style, and signature use of the whistle register. She rose to superstardom in 1990 after signing to Columbia Records and releasing her eponymous debut album, which peaked atop the Billboard 200. Carey became the first and only artist to have their first five singles reach number-one on the U.S. Billboard Hot 100 chart, from "Vision of Love" to "Emotions".\n'
p268
aS'Keira Christina Knightley  (born 26 March 1985) is an English actress. She has worked in the British and American film industries, and has starred in Broadway and West End theatre productions. She has won an Empire Award and multiple nominations for British Academy, Golden Globe, and Academy Awards.\n'
p269
aS'Steven Allan Spielberg   (born December 18, 1946) is an American filmmaker. He is considered one of the founding pioneers of the New Hollywood era and one of the most popular directors and producers in film history.\n'
p270
ag71
aS'Alyson Lee Hannigan (born March 24, 1974) is an American actress. She is best known for her roles as Willow Rosenberg on the television series Buffy the Vampire Slayer (1997\xe2\x80\x932003), Lily Aldrin on the sitcom How I Met Your Mother (2005\xe2\x80\x932014), and Michelle Flaherty in the American Pie film series (1999\xe2\x80\x932012).\n'
p271
ag71
ag71
ag71
aS"Cristiano Ronaldo dos Santos Aveiro  (; born 5 February 1985) is a Portuguese professional footballer who plays as a forward for Italian club Juventus and the Portugal national team. Often considered the best player in the world and  regarded by many as one of the greatest players of all time, Ronaldo has a record-tying five Ballon d'Or awards, the most for a European player, and is the first player to win four European Golden Shoes. He has won 26 trophies in his career, including five league titles, five UEFA Champions League titles and one UEFA European Championship. A prolific goalscorer, Ronaldo holds the records for most official goals scored in Europe's top-five leagues (404), the UEFA Champions League (121), the UEFA European Championship (9), as well as those for most assists in the UEFA Champions League (34) and the UEFA European Championship (6). He has scored over 680 senior career goals for club and country.\n"
p272
aS'Alicia Christian "Jodie" Foster (born November 19, 1962) is an American actress, director, and producer. She has received two Academy Awards, three British Academy Film Awards, two Golden Globe Awards, a Screen Actors Guild Award and the Cecil B DeMille Award. For her work as a director, Foster has been nominated for two Directors Guild of America Awards and a Primetime Emmy Award.\n'
p273
aS'Terence Hill (born Mario Girotti; 29 March 1939) is an Italian actor, film director, screenwriter and film producer.\n'
p274
aS'Neil Patrick Harris (born June 15, 1973) is an American actor, writer, producer, comedian, magician, and singer. He is known primarily for his comedy roles on television and his dramatic and musical stage roles. On television, he is known for playing the title character on Doogie Howser, M.D. (1989\xe2\x80\x931993), Barney Stinson on How I Met Your Mother (2005\xe2\x80\x932014, for which he was nominated for four Emmy Awards), and  Count Olaf in A Series of Unfortunate Events (2017\xe2\x80\x93present).\n'
p275
ag261
aVMonica Anna Maria Bellucci (, born 30 September 1964) is an Italian actress and model. Bellucci began her career as a fashion model, modeling for the likes of Dolce & Gabbana and Dior, before making a transition to Italian films and later Hollywood films. She is often considered among the most beautiful women in the world.\u000a
p276
aS'Quentin Jerome Tarantino (</span>/</span></span>; born March 27, 1963) is an American director, writer, and actor. His films are characterized by nonlinear storylines; satirical subject matter; an aestheticization of violence; extended scenes of dialogue; ensemble casts consisting of established and lesser-known performers; references to popular culture and a wide variety of other films; soundtracks primarily containing songs and score pieces from the 1960s to the 1980s; and features of neo-noir film.\n'
p277
ag71
ag71
aS'Jury Dimitri Chechi Commendatore OMRI (; born 11 October 1969) is a retired Italian gymnast.\n'
p278
ag71
ag71
ag71
aS'Julia Fiona Roberts (born October 28, 1967) is an American actress and producer. She became a Hollywood star after headlining the romantic comedy Pretty Woman (1990), which grossed $464\xc2\xa0million worldwide. She has won three Golden Globe Awards (out of eight nominations) and has been nominated for four Academy Awards for her film acting, winning the Academy Award for Best Actress for her performance in Erin Brockovich (2000).\n'
p279
aS'Natalie Portman (born Neta-Lee Hershlag; June 9, 1981) is a film actress, producer, and director with dual Israeli and American citizenship. She is the recipient of various accolades, including an Academy Award and two Golden Globe Awards.\n'
p280
aS'Angelina Jolie (</span>/</span></span> <i title="English pronunciation respelling">joh-; born Angelina Jolie Voight, June 4, 1975) is an American actress, filmmaker, and humanitarian. She has received an Academy Award, two Screen Actors Guild Awards, and three Golden Globe Awards, and has been cited as Hollywood\'s highest-paid actress. Jolie made her screen debut as a child alongside her father, Jon Voight, in Lookin\' to Get Out (1982). Her film career began in earnest a decade later with the low-budget production Cyborg 2 (1993), followed by her first leading role in a major film, Hackers (1995). She starred in the critically acclaimed biographical cable films George Wallace (1997) and Gia (1998), and won an Academy Award for Best Supporting Actress for her performance in the drama Girl, Interrupted (1999).\n'
p281
aS"Robert John Downey Jr. (born April 4, 1965) is an American actor and singer. His career has included critical and popular success in his youth, followed by a period of substance abuse and legal difficulties, and a resurgence of commercial success in middle age. For three consecutive years from 2012 to 2015, Downey topped the Forbes list of Hollywood's highest-paid actors, making an estimated $80\xc2\xa0million in earnings between June 2014 and June 2015.\n"
p282
ag71
ag71
aS'Harrison Ford (born July 13, 1942) is an American actor, writer and film producer. He gained worldwide fame for his starring roles as Han Solo in the Star Wars film series and as the title character of the Indiana Jones film series. Five of his movies are within the 30 top-grossing movies of all time at the US box office (when adjusted for inflation). Ford is also known for playing Rick Deckard in the neo-noir dystopian science fiction film Blade Runner (1982) and its sequel Blade Runner 2049 (2017); John Book in the thriller Witness (1985), for which he was nominated for the Academy Award for Best Actor; and Jack Ryan in the action films Patriot Games (1992) and Clear and Present Danger (1994).\n'
p283
ag71
ag71
aS"Kimberly Noel Kardashian West (</span>/</span></span>; born October 21, 1980) is an American reality television personality, entrepreneur and socialite. Kardashian first gained media attention as a friend and stylist of Paris Hilton, but received wider notice after a 2003 sex tape with her former boyfriend Ray J was leaked in 2007. Later that year, she and her family began to appear in the E! reality television series Keeping Up with the Kardashians. Its success soon led to the creation of spin-offs including Kourtney and Kim Take New York and Kourtney and Khlo\xc3\xa9 Take Miami. Kardashian's personal life soon became subject to widespread media attention.\n"
p284
ag71
aS"Cameron Michelle Diaz (born August 30, 1972) is an American actress, producer, author, and fashion model. She has frequently appeared in comedies throughout her career, while also earning critical recognition in dramatic films. Her accolades include four Golden Globe Award nominations, three Screen Actors Guild Award nominations, and a  New York Film Critics Award. In 2013, she was named the highest-paid actress over 40 in Hollywood. As of  2018, the U.S. domestic box office grosses of Diaz's films total over $3 billion USD, with worldwide grosses surpassing $7 billion, making her the fifth highest-grossing U.S. domestic box office actress.\n"
p285
aS'Britney Jean Spears (born December 2, 1981) is an American singer, songwriter, dancer, and actress. Born in McComb, Mississippi, and raised in Kentwood, Louisiana, she appeared in stage productions and television series, before signing with Jive Records in 1997. Spears\'s first two studio albums, ...Baby One More Time (1999) and Oops!... I Did It Again (2000), were global successes and made her the best-selling teenage artist of all-time. Referred to as the "Princess of Pop", Spears was credited with influencing the revival of teen pop during the late 1990s and early 2000s.\n'
p286
ag71
aS'Andrea Bocelli,  (; born 22 September 1958) is an Italian singer, songwriter, and record producer. Celine Dion has said that "if God would have a singing voice, he must sound a lot like Andrea Bocelli," and David Foster, a record producer, often describes Bocelli\'s voice as the most beautiful in the world.\n'
p287
aS'Edward Christopher Sheeran,  (</span>/</span></span>; born 17 February 1991) is an English singer, songwriter, guitarist, record producer, and actor. Sheeran was born in Halifax, West Yorkshire, and raised in Framlingham, Suffolk. He attended the Academy of Contemporary Music in Guildford as an undergraduate from the age of 18 in 2009. In early 2011, Sheeran independently released the extended play, No. 5 Collaborations Project.\n'
p288
ag71
aS"Sharon Vonne Stone (born March 10, 1958) is an American actress, producer, and former fashion model. After modelling in television commercials and print advertisements, she made her film debut as an extra in Woody Allen's comedy-drama Stardust Memories (1980). Her first speaking part was in Wes Craven's horror film Deadly Blessing (1981), and throughout the 1980s, Stone went on to appear in films such as Irreconcilable Differences (1984), King Solomon's Mines (1985), Cold Steel (1987), and Above the Law (1988). She found mainstream prominence with her part in Paul Verhoeven's action film Total Recall (1990).\n"
p289
aS"Roger Federer (; born 8 August 1981) is a Swiss professional tennis player who is currently ranked world No. 3 in men's singles tennis by the Association of Tennis Professionals (ATP). Federer has won 20 Grand Slam singles titles\xe2\x80\x94the most in history for a male player\xe2\x80\x94and has held the world No. 1 spot in the ATP rankings for a record total of 310 weeks, including a record 237 consecutive weeks. After turning professional in 1998, he was continuously ranked in the top ten from October 2002 to November 2016. He re-entered the top ten following his victory at the 2017 Australian Open.\n"
p290
aS'Serena Jameka Williams (born September 26, 1981) is an American professional tennis player. The Women\'s Tennis Association (WTA) ranked her world No. 1 in singles on eight separate occasions between 2002 and 2017. She reached the No. 1 ranking for the first time on July 8, 2002. On her sixth occasion, she held the ranking for 186 consecutive weeks, tying the record set by Steffi Graf. In total, she has been No. 1 for 319 weeks, which ranks third in the "Open Era" among female players behind Graf and Martina Navratilova.\n'
p291
aS'BRITISH'
p292
ag71
aS'ITALIAN'
p293
ag71
aS'CUBAN'
p294
ag71
ag292
ag71
aS'CHINA'
p295
aS'SOUTH AFRICAN'
p296
ag71
ag293
aS'AMERICAN'
p297
ag71
ag71
ag71
aS'Iraqi'
p298
ag297
aS'Italian'
p299
ag71
ag71
ag71
ag297
ag71
aS'FRENCH'
p300
ag293
aS'GERMAN'
p301
aS'RUSSIAN'
p302
ag71
ag71
ag71
ag292
ag71
ag71
aS'NORTH KOREAN'
p303
ag297
ag297
aS'INDIAN'
p304
ag293
aS'SWISS'
p305
aS'Palestinian'
p306
ag71
ag71
ag71
ag71
ag71
ag71
ag71
ag297
ag71
ag297
ag71
ag71
ag71
aS'CANADIAN'
p307
ag71
ag293
ag71
ag302
ag71
ag297
ag71
ag71
ag293
ag305
ag71
ag71
ag71
ag293
ag292
ag71
ag71
ag71
ag297
aS'SPANISH'
p308
ag297
ag297
ag297
ag297
ag297
ag297
aS'American'
p309
ag71
aS'BRITISH'
p310
ag297
ag71
ag293
ag71
ag297
ag71
aS'Indian'
p311
ag297
aS'American'
p312
ag71
ag71
ag297
ag297
ag71
ag297
ag310
aS'British'
p313
aS'Jamaican'
p314
ag71
ag71
ag71
ag297
aS'AUSTRALIAN'
p315
ag297
ag297
ag310
ag71
ag71
ag297
ag71
ag71
ag307
aS'American'
p316
ag71
ag71
ag71
ag297
ag310
ag293
ag310
ag297
ag71
ag297
ag297
ag293
aS'British'
p317
ag297
aS'British'
p318
ag297
ag297
ag71
ag310
ag71
ag310
ag71
ag71
aS'American'
p319
ag297
ag71
ag297
ag297
ag310
ag297
ag293
ag71
ag297
ag310
ag297
ag71
ag297
ag71
ag71
ag71
aS'PORTUGUESE'
p320
aS'American'
p321
aS'Italian'
p322
ag297
aS'American'
p323
aS'Italian'
p324
ag297
ag71
ag71
ag293
ag71
ag71
ag71
ag297
ag297
ag310
ag297
ag71
ag71
ag297
ag71
ag71
ag297
ag71
ag297
ag297
ag71
ag293
ag310
ag71
ag297
ag305
ag297
atp325
bag19
(g20
(I0
tp326
g22
tp327
Rp328
(I1
(I2
I190
tp329
g26
(S'i8'
p330
I0
I1
tp331
Rp332
(I3
S'<'
p333
NNNI-1
I-1
I0
tp334
bI00
S'\x01\x00\x00\x00\x00\x00\x00\x00\x00\x00\x00\x00\x00\x00\x00\x00\x01\x00\x00\x00\x00\x00\x00\x00\x01\x00\x00\x00\x00\x00\x00\x00\x01\x00\x00\x00\x00\x00\x00\x00\x00\x00\x00\x00\x00\x00\x00\x00\x01\x00\x00\x00\x00\x00\x00\x00\x00\x00\x00\x00\x00\x00\x00\x00\x01\x00\x00\x00\x00\x00\x00\x00\x01\x00\x00\x00\x00\x00\x00\x00\x01\x00\x00\x00\x00\x00\x00\x00\x01\x00\x00\x00\x00\x00\x00\x00\x01\x00\x00\x00\x00\x00\x00\x00\x00\x00\x00\x00\x00\x00\x00\x00\x00\x00\x00\x00\x00\x00\x00\x00\x00\x00\x00\x00\x00\x00\x00\x00\x01\x00\x00\x00\x00\x00\x00\x00\x01\x00\x00\x00\x00\x00\x00\x00\x00\x00\x00\x00\x00\x00\x00\x00\x01\x00\x00\x00\x00\x00\x00\x00\x00\x00\x00\x00\x00\x00\x00\x00\x00\x00\x00\x00\x00\x00\x00\x00\x00\x00\x00\x00\x00\x00\x00\x00\x00\x00\x00\x00\x00\x00\x00\x00\x01\x00\x00\x00\x00\x00\x00\x00\x01\x00\x00\x00\x00\x00\x00\x00\x01\x00\x00\x00\x00\x00\x00\x00\x01\x00\x00\x00\x00\x00\x00\x00\x00\x00\x00\x00\x00\x00\x00\x00\x00\x00\x00\x00\x00\x00\x00\x00\x00\x00\x00\x00\x00\x00\x00\x00\x01\x00\x00\x00\x00\x00\x00\x00\x00\x00\x00\x00\x00\x00\x00\x00\x00\x00\x00\x00\x00\x00\x00\x00\x01\x00\x00\x00\x00\x00\x00\x00\x01\x00\x00\x00\x00\x00\x00\x00\x01\x00\x00\x00\x00\x00\x00\x00\x01\x00\x00\x00\x00\x00\x00\x00\x01\x00\x00\x00\x00\x00\x00\x00\x01\x00\x00\x00\x00\x00\x00\x00\x01\x00\x00\x00\x00\x00\x00\x00\x00\x00\x00\x00\x00\x00\x00\x00\x00\x00\x00\x00\x00\x00\x00\x00\x01\x00\x00\x00\x00\x00\x00\x00\x00\x00\x00\x00\x00\x00\x00\x00\x01\x00\x00\x00\x00\x00\x00\x00\x01\x00\x00\x00\x00\x00\x00\x00\x00\x00\x00\x00\x00\x00\x00\x00\x01\x00\x00\x00\x00\x00\x00\x00\x00\x00\x00\x00\x00\x00\x00\x00\x01\x00\x00\x00\x00\x00\x00\x00\x00\x00\x00\x00\x00\x00\x00\x00\x00\x00\x00\x00\x00\x00\x00\x00\x00\x00\x00\x00\x00\x00\x00\x00\x01\x00\x00\x00\x00\x00\x00\x00\x00\x00\x00\x00\x00\x00\x00\x00\x01\x00\x00\x00\x00\x00\x00\x00\x01\x00\x00\x00\x00\x00\x00\x00\x01\x00\x00\x00\x00\x00\x00\x00\x00\x00\x00\x00\x00\x00\x00\x00\x01\x00\x00\x00\x00\x00\x00\x00\x00\x00\x00\x00\x00\x00\x00\x00\x00\x00\x00\x00\x00\x00\x00\x00\x01\x00\x00\x00\x00\x00\x00\x00\x00\x00\x00\x00\x00\x00\x00\x00\x00\x00\x00\x00\x00\x00\x00\x00\x00\x00\x00\x00\x00\x00\x00\x00\x00\x00\x00\x00\x00\x00\x00\x00\x01\x00\x00\x00\x00\x00\x00\x00\x01\x00\x00\x00\x00\x00\x00\x00\x00\x00\x00\x00\x00\x00\x00\x00\x00\x00\x00\x00\x00\x00\x00\x00\x00\x00\x00\x00\x00\x00\x00\x00\x01\x00\x00\x00\x00\x00\x00\x00\x01\x00\x00\x00\x00\x00\x00\x00\x01\x00\x00\x00\x00\x00\x00\x00\x01\x00\x00\x00\x00\x00\x00\x00\x01\x00\x00\x00\x00\x00\x00\x00\x01\x00\x00\x00\x00\x00\x00\x00\x01\x00\x00\x00\x00\x00\x00\x00\x01\x00\x00\x00\x00\x00\x00\x00\x01\x00\x00\x00\x00\x00\x00\x00\x00\x00\x00\x00\x00\x00\x00\x00\x01\x00\x00\x00\x00\x00\x00\x00\x01\x00\x00\x00\x00\x00\x00\x00\x00\x00\x00\x00\x00\x00\x00\x00\x01\x00\x00\x00\x00\x00\x00\x00\x00\x00\x00\x00\x00\x00\x00\x00\x01\x00\x00\x00\x00\x00\x00\x00\x00\x00\x00\x00\x00\x00\x00\x00\x00\x00\x00\x00\x00\x00\x00\x00\x01\x00\x00\x00\x00\x00\x00\x00\x01\x00\x00\x00\x00\x00\x00\x00\x00\x00\x00\x00\x00\x00\x00\x00\x00\x00\x00\x00\x00\x00\x00\x00\x01\x00\x00\x00\x00\x00\x00\x00\x01\x00\x00\x00\x00\x00\x00\x00\x00\x00\x00\x00\x00\x00\x00\x00\x01\x00\x00\x00\x00\x00\x00\x00\x01\x00\x00\x00\x00\x00\x00\x00\x01\x00\x00\x00\x00\x00\x00\x00\x01\x00\x00\x00\x00\x00\x00\x00\x00\x00\x00\x00\x00\x00\x00\x00\x00\x00\x00\x00\x00\x00\x00\x00\x01\x00\x00\x00\x00\x00\x00\x00\x01\x00\x00\x00\x00\x00\x00\x00\x01\x00\x00\x00\x00\x00\x00\x00\x01\x00\x00\x00\x00\x00\x00\x00\x01\x00\x00\x00\x00\x00\x00\x00\x01\x00\x00\x00\x00\x00\x00\x00\x01\x00\x00\x00\x00\x00\x00\x00\x01\x00\x00\x00\x00\x00\x00\x00\x01\x00\x00\x00\x00\x00\x00\x00\x00\x00\x00\x00\x00\x00\x00\x00\x01\x00\x00\x00\x00\x00\x00\x00\x01\x00\x00\x00\x00\x00\x00\x00\x01\x00\x00\x00\x00\x00\x00\x00\x01\x00\x00\x00\x00\x00\x00\x00\x00\x00\x00\x00\x00\x00\x00\x00\x00\x00\x00\x00\x00\x00\x00\x00\x01\x00\x00\x00\x00\x00\x00\x00\x01\x00\x00\x00\x00\x00\x00\x00\x00\x00\x00\x00\x00\x00\x00\x00\x01\x00\x00\x00\x00\x00\x00\x00\x01\x00\x00\x00\x00\x00\x00\x00\x00\x00\x00\x00\x00\x00\x00\x00\x01\x00\x00\x00\x00\x00\x00\x00\x01\x00\x00\x00\x00\x00\x00\x00\x01\x00\x00\x00\x00\x00\x00\x00\x01\x00\x00\x00\x00\x00\x00\x00\x01\x00\x00\x00\x00\x00\x00\x00\x01\x00\x00\x00\x00\x00\x00\x00\x01\x00\x00\x00\x00\x00\x00\x00\x01\x00\x00\x00\x00\x00\x00\x00\x00\x00\x00\x00\x00\x00\x00\x00\x01\x00\x00\x00\x00\x00\x00\x00\x00\x00\x00\x00\x00\x00\x00\x00\x01\x00\x00\x00\x00\x00\x00\x00\x01\x00\x00\x00\x00\x00\x00\x00\x00\x00\x00\x00\x00\x00\x00\x00\x01\x00\x00\x00\x00\x00\x00\x00\x01\x00\x00\x00\x00\x00\x00\x00\x00\x00\x00\x00\x00\x00\x00\x00\x01\x00\x00\x00\x00\x00\x00\x00\x01\x00\x00\x00\x00\x00\x00\x00\x01\x00\x00\x00\x00\x00\x00\x00\x01\x00\x00\x00\x00\x00\x00\x00\x01\x00\x00\x00\x00\x00\x00\x00\x01\x00\x00\x00\x00\x00\x00\x00\x01\x00\x00\x00\x00\x00\x00\x00\x01\x00\x00\x00\x00\x00\x00\x00\x01\x00\x00\x00\x00\x00\x00\x00\x00\x00\x00\x00\x00\x00\x00\x00\x01\x00\x00\x00\x00\x00\x00\x00\x01\x00\x00\x00\x00\x00\x00\x00\x00\x00\x00\x00\x00\x00\x00\x00\x00\x00\x00\x00\x00\x00\x00\x00\x01\x00\x00\x00\x00\x00\x00\x00\x01\x00\x00\x00\x00\x00\x00\x00\x01\x00\x00\x00\x00\x00\x00\x00\x01\x00\x00\x00\x00\x00\x00\x00\x01\x00\x00\x00\x00\x00\x00\x00\x01\x00\x00\x00\x00\x00\x00\x00\x01\x00\x00\x00\x00\x00\x00\x00\x00\x00\x00\x00\x00\x00\x00\x00\x00\x00\x00\x00\x00\x00\x00\x00\x01\x00\x00\x00\x00\x00\x00\x00\x00\x00\x00\x00\x00\x00\x00\x00\x00\x00\x00\x00\x00\x00\x00\x00\x01\x00\x00\x00\x00\x00\x00\x00\x01\x00\x00\x00\x00\x00\x00\x00\x01\x00\x00\x00\x00\x00\x00\x00\x01\x00\x00\x00\x00\x00\x00\x00\x01\x00\x00\x00\x00\x00\x00\x00\x00\x00\x00\x00\x00\x00\x00\x00\x00\x00\x00\x00\x00\x00\x00\x00\x01\x00\x00\x00\x00\x00\x00\x00\x00\x00\x00\x00\x00\x00\x00\x00\x01\x00\x00\x00\x00\x00\x00\x00\x01\x00\x00\x00\x00\x00\x00\x00\x01\x00\x00\x00\x00\x00\x00\x00\x01\x00\x00\x00\x00\x00\x00\x00\x01\x00\x00\x00\x00\x00\x00\x00\x00\x00\x00\x00\x00\x00\x00\x00\x01\x00\x00\x00\x00\x00\x00\x00\x01\x00\x00\x00\x00\x00\x00\x00\x00\x00\x00\x00\x00\x00\x00\x00\x01\x00\x00\x00\x00\x00\x00\x00\x01\x00\x00\x00\x00\x00\x00\x00\x01\x00\x00\x00\x00\x00\x00\x00\x01\x00\x00\x00\x00\x00\x00\x00\x01\x00\x00\x00\x00\x00\x00\x00\x01\x00\x00\x00\x00\x00\x00\x00\x01\x00\x00\x00\x00\x00\x00\x00\x01\x00\x00\x00\x00\x00\x00\x00\x01\x00\x00\x00\x00\x00\x00\x00\x01\x00\x00\x00\x00\x00\x00\x00\x01\x00\x00\x00\x00\x00\x00\x00\x01\x00\x00\x00\x00\x00\x00\x00\x01\x00\x00\x00\x00\x00\x00\x00\x01\x00\x00\x00\x00\x00\x00\x00\x01\x00\x00\x00\x00\x00\x00\x00\x01\x00\x00\x00\x00\x00\x00\x00\x01\x00\x00\x00\x00\x00\x00\x00\x01\x00\x00\x00\x00\x00\x00\x00\x01\x00\x00\x00\x00\x00\x00\x00\x01\x00\x00\x00\x00\x00\x00\x00\x01\x00\x00\x00\x00\x00\x00\x00\x01\x00\x00\x00\x00\x00\x00\x00\x01\x00\x00\x00\x00\x00\x00\x00\x01\x00\x00\x00\x00\x00\x00\x00\x01\x00\x00\x00\x00\x00\x00\x00\x01\x00\x00\x00\x00\x00\x00\x00\x01\x00\x00\x00\x00\x00\x00\x00\x01\x00\x00\x00\x00\x00\x00\x00\x01\x00\x00\x00\x00\x00\x00\x00\x01\x00\x00\x00\x00\x00\x00\x00\x01\x00\x00\x00\x00\x00\x00\x00\x01\x00\x00\x00\x00\x00\x00\x00\x01\x00\x00\x00\x00\x00\x00\x00\x01\x00\x00\x00\x00\x00\x00\x00\x01\x00\x00\x00\x00\x00\x00\x00\x01\x00\x00\x00\x00\x00\x00\x00\x01\x00\x00\x00\x00\x00\x00\x00\x01\x00\x00\x00\x00\x00\x00\x00\x01\x00\x00\x00\x00\x00\x00\x00\x01\x00\x00\x00\x00\x00\x00\x00\x01\x00\x00\x00\x00\x00\x00\x00\x01\x00\x00\x00\x00\x00\x00\x00\x01\x00\x00\x00\x00\x00\x00\x00\x01\x00\x00\x00\x00\x00\x00\x00\x01\x00\x00\x00\x00\x00\x00\x00\x01\x00\x00\x00\x00\x00\x00\x00\x01\x00\x00\x00\x00\x00\x00\x00\x01\x00\x00\x00\x00\x00\x00\x00\x01\x00\x00\x00\x00\x00\x00\x00\x01\x00\x00\x00\x00\x00\x00\x00\x01\x00\x00\x00\x00\x00\x00\x00\x01\x00\x00\x00\x00\x00\x00\x00\x01\x00\x00\x00\x00\x00\x00\x00\x01\x00\x00\x00\x00\x00\x00\x00\x01\x00\x00\x00\x00\x00\x00\x00\x01\x00\x00\x00\x00\x00\x00\x00\x01\x00\x00\x00\x00\x00\x00\x00\x01\x00\x00\x00\x00\x00\x00\x00\x01\x00\x00\x00\x00\x00\x00\x00\x01\x00\x00\x00\x00\x00\x00\x00\x01\x00\x00\x00\x00\x00\x00\x00\x01\x00\x00\x00\x00\x00\x00\x00\x01\x00\x00\x00\x00\x00\x00\x00\x01\x00\x00\x00\x00\x00\x00\x00\x01\x00\x00\x00\x00\x00\x00\x00\x01\x00\x00\x00\x00\x00\x00\x00\x01\x00\x00\x00\x00\x00\x00\x00\x01\x00\x00\x00\x00\x00\x00\x00\x01\x00\x00\x00\x00\x00\x00\x00\x01\x00\x00\x00\x00\x00\x00\x00\x01\x00\x00\x00\x00\x00\x00\x00\x01\x00\x00\x00\x00\x00\x00\x00\x01\x00\x00\x00\x00\x00\x00\x00\x01\x00\x00\x00\x00\x00\x00\x00\x01\x00\x00\x00\x00\x00\x00\x00\x01\x00\x00\x00\x00\x00\x00\x00\x01\x00\x00\x00\x00\x00\x00\x00\x00\x00\x00\x00\x00\x00\x00\x00\x00\x00\x00\x00\x00\x00\x00\x00\x00\x00\x00\x00\x00\x00\x00\x00\x00\x00\x00\x00\x00\x00\x00\x00\x00\x00\x00\x00\x00\x00\x00\x00\x00\x00\x00\x00\x00\x00\x00\x00\x00\x00\x00\x00\x00\x00\x00\x00\x00\x00\x00\x00\x00\x00\x00\x00\x00\x00\x00\x00\x00\x00\x00\x00\x00\x00\x00\x00\x00\x00\x00\x00\x00\x00\x00\x00\x00\x00\x00\x00\x00\x00\x00\x00\x00\x00\x00\x00\x00\x00\x00\x00\x00\x00\x00\x00\x00\x00\x00\x00\x00\x00\x00\x00\x00\x00\x00\x00\x00\x00\x00\x00\x00\x00\x00\x00\x00\x00\x00\x00\x00\x00\x00\x00\x00\x00\x00\x00\x00\x00\x00\x00\x00\x00\x00\x00\x00\x00\x00\x00\x00\x00\x00\x00\x00\x00\x00\x00\x00\x00\x00\x00\x00\x00\x00\x00\x00\x00\x00\x00\x00\x00\x00\x00\x00\x00\x00\x00\x00\x00\x00\x00\x00\x00\x00\x00\x00\x00\x00\x00\x00\x00\x00\x00\x00\x00\x00\x00\x00\x00\x00\x00\x00\x00\x00\x00\x00\x00\x00\x00\x00\x00\x00\x00\x00\x00\x00\x00\x00\x00\x00\x00\x00\x00\x00\x00\x00\x00\x00\x00\x00\x00\x00\x00\x00\x00\x00\x00\x00\x00\x00\x00\x00\x00\x00\x00\x00\x00\x00\x00\x00\x00\x00\x00\x00\x00\x00\x00\x00\x00\x00\x00\x00\x00\x00\x00\x00\x00\x00\x00\x00\x00\x00\x00\x00\x00\x00\x00\x00\x00\x00\x00\x00\x00\x00\x00\x00\x00\x00\x00\x00\x00\x00\x00\x00\x00\x00\x00\x00\x00\x00\x00\x00\x00\x00\x00\x00\x00\x00\x00\x00\x00\x00\x00\x00\x00\x00\x00\x00\x00\x00\x00\x00\x00\x00\x00\x00\x00\x00\x00\x00\x00\x00\x00\x00\x00\x00\x00\x00\x00\x00\x00\x00\x00\x00\x00\x00\x00\x00\x00\x00\x00\x00\x00\x00\x00\x00\x00\x00\x00\x00\x00\x00\x00\x00\x00\x00\x00\x00\x00\x00\x00\x00\x00\x00\x00\x00\x00\x00\x00\x00\x00\x00\x00\x00\x00\x00\x00\x00\x00\x00\x00\x00\x00\x00\x00\x00\x00\x00\x00\x00\x00\x00\x00\x00\x00\x00\x00\x00\x00\x00\x00\x00\x00\x00\x00\x00\x00\x00\x00\x00\x00\x00\x00\x00\x00\x00\x00\x00\x00\x00\x00\x00\x00\x00\x00\x00\x00\x00\x00\x00\x00\x00\x00\x00\x00\x00\x00\x00\x00\x00\x00\x00\x00\x00\x00\x00\x00\x00\x00\x00\x00\x00\x00\x00\x00\x00\x00\x00\x00\x00\x00\x00\x00\x00\x00\x00\x00\x00\x00\x00\x00\x00\x00\x00\x00\x00\x00\x00\x00\x00\x00\x00\x00\x00\x00\x00\x00\x00\x00\x00\x00\x00\x00\x00\x00\x00\x00\x00\x00\x00\x00\x00\x00\x00\x00\x00\x00\x00\x00\x00\x00\x00\x00\x00\x00\x00\x00\x00\x00\x00\x00\x00\x00\x00\x00\x00\x00\x00\x00\x00\x00\x00\x00\x00\x00\x00\x00\x00\x00\x00\x00\x00\x00\x00\x00\x00\x00\x00\x00\x00\x00\x00\x00\x00\x00\x00\x00\x00\x00\x00\x00\x00\x00\x00\x00\x00\x00\x00\x00\x00\x00\x00\x00\x00\x00\x00\x00\x00\x00\x00\x00\x00\x00\x00\x00\x00\x00\x00\x00\x00\x00\x00\x00\x00\x00\x00\x00\x00\x00\x00\x00\x00\x00\x00\x00\x00\x00\x00\x00\x00\x00\x00\x00\x00\x00\x00\x00\x00\x00\x00\x00\x00\x00\x00\x00\x00\x00\x00\x00\x00\x00\x00\x00\x00\x00\x00\x00\x00\x00\x00\x00\x00\x00\x00\x00\x00\x00\x00\x00\x00\x00\x00\x00\x00\x00\x00\x00\x00\x00\x00\x00\x00\x00\x00\x00\x00\x00\x00\x00\x00\x00\x00\x00\x00\x00\x00\x00\x00\x00\x00\x00\x00\x00\x00\x00\x00\x00\x00\x00\x00\x00\x00\x00\x00\x00\x00\x00\x00\x00\x00\x00\x00\x00\x00\x00\x00\x00\x00\x00\x00\x00\x00\x00\x00\x00\x00\x00\x00\x00\x00\x00\x00\x00\x00\x00\x00\x00\x00\x00\x00\x00\x00\x00\x00\x00\x00\x00\x00\x00\x00\x00\x00\x00\x00\x00\x00\x00\x00\x00\x00\x00\x00\x00\x00\x00\x00\x00\x00\x00\x00\x00\x00\x00\x00\x00\x00\x00\x00\x00\x00\x00\x00\x00\x00\x00\x00\x00\x00\x00\x00\x00\x00\x00\x00\x00\x00\x00\x00\x00\x00\x00\x00\x00\x00\x00\x00\x00\x00\x00\x00\x00\x00\x00\x00\x00\x00\x00\x00\x00\x00\x00\x00\x00\x00\x00\x00\x00\x00\x00\x00\x00\x00\x00\x00\x00\x00\x00\x00\x00\x00\x00\x00\x00\x00\x00\x00\x00\x00\x00\x00\x00\x00\x00\x00\x00\x00\x00\x00\x00\x00\x00\x00\x00\x00\x00\x00\x00\x00\x00\x00\x00\x00\x00\x00\x00\x00\x00\x00\x00\x00\x00\x00\x00\x00\x00\x00\x00\x00\x00\x00\x00\x00\x00\x00\x00\x00\x00\x00\x00\x00\x00\x00\x00\x00\x00\x00\x00\x00\x00\x00\x00\x00\x00\x00\x00\x00\x00\x00\x00\x00\x00\x00\x00\x00\x00\x00\x00\x00\x00'
p335
tp336
bag19
(g20
(I0
tp337
g22
tp338
Rp339
(I1
(I6
I190
tp340
g29
I00
(lp341
VMary
p342
ag71
aV
p343
ag71
aVAlejandro  Ruz
p344
ag71
aVWilliam Donald
p345
ag71
ag343
aVRolihlahla
p346
ag71
ag343
aVMilhous
p347
ag71
ag71
ag71
aVAbd al-Majid al-Tikriti
p348
aVJohn
p349
ag343
ag71
ag71
ag71
aVEdmund
p350
ag71
aVJean-Michel Frdric
p351
ag343
aVDorothea
p352
aVovich
p353
ag71
ag71
ag71
aVSir  Leonard Spencer-
p354
ag71
ag71
ag343
aVHussein  II
p355
aVAlfred
p356
aVPriyadarshini
p357
ag343
ag343
ag343
ag71
ag71
ag71
ag71
ag71
ag71
ag71
aVAlois
p358
ag71
aVWalker
p359
ag71
ag71
ag71
aVPierre James
p360
ag71
ag343
ag71
ag343
ag71
aVWilson
p361
ag71
ag71
ag343
ag343
ag71
ag71
ag71
ag343
aVHilda , Baroness
p362
ag71
ag71
ag71
aVFitzgerald "Jack"
p363
aVParera
p364
aVFord
p365
ag343
aVDean
p366
aVTimothy
p367
aVJustin
p368
aVEdwin
p369
aVWalter
p370
ag71
aVJacob
p371
ag343
ag71
aVFrancesco ""
p372
ag71
aVWilhelm
p373
ag71
aVSingh
p374
aVAnn
p375
aVWilliam ley
p376
ag71
ag71
aVjamin Gza -Boldt
p377
aVCarmina
p378
ag71
aVKathleen
p379
aVHelene
p380
aVSir James
p381
aVSt Leo
p382
ag71
ag71
ag71
aVHeywood ""
p383
aVMary
p384
aVRay
p385
aVDavid
p386
aVWilliam
p387
ag71
ag71
ag343
ag71
ag71
aVDrew
p388
aVothy Walter
p389
ag71
ag71
ag71
ag343
aVLee
p390
ag343
ag343
aVShrader
p391
ag71
ag343
aVJoanna
p392
aVRemigio
p393
aVCharlotte Duerre
p394
ag343
aVRussell
p395
aVGalen
p396
aVMara
p397
ag71
aVTiffany
p398
ag71
aVElizabeth
p399
ag71
ag71
aNaVJoseph
p400
ag71
aVLynn
p401
aVKaruna
p402
aVSir  Hercules
p403
aVMichael
p404
ag343
ag71
ag343
aVChristina
p405
aVAllan
p406
ag71
aVLee
p407
ag71
ag71
ag71
aVdos Santos Aveiro
p408
aVAlicia Christian ""
p409
ag343
aVPatrick
p410
aNaVAnna Maria
p411
aVJerome
p412
ag71
ag71
aVDimitri
p413
ag71
ag71
ag71
aVFiona
p414
ag343
aVVoight
p415
aVJohn  Jr.
p416
ag71
ag71
ag343
ag71
ag71
aVberly Noel  West
p417
ag71
aVMichelle
p418
aVJean
p419
ag71
ag343
aVward Christopher
p420
ag71
aVVonne
p421
ag343
aVJameka
p422
aF0.0
ag71
aF6600.0
ag71
aF0.0
ag71
aF0.0
ag71
aF0.0
aF0.0
ag71
aF0.0
aF0.0
ag71
ag71
ag71
aF0.0
aF3100.0
aF0.0
ag71
ag71
ag71
aF0.0
ag71
aF0.0
aF0.0
aF0.0
aF0.0
ag71
ag71
ag71
aF0.0
ag71
ag71
aF0.0
aF0.0
aF0.0
aF0.0
aF0.0
aF0.0
aF0.0
ag71
ag71
ag71
ag71
ag71
ag71
ag71
aF0.0
ag71
aF0.0
ag71
ag71
ag71
aF0.0
ag71
aF0.0
ag71
aF0.0
ag71
aF0.0
ag71
ag71
aF0.0
aF0.0
ag71
ag71
ag71
aF0.0
aF0.0
ag71
ag71
ag71
aF0.0
aF0.0
aF0.0
aF0.0
aF0.0
aF0.0
aF0.0
aF0.0
aF0.0
ag71
aF0.0
aF0.0
ag71
aF0.0
ag71
aF0.0
ag71
aF0.0
aF0.0
aF0.0
ag71
ag71
aF0.0
aF0.0
ag71
aF0.0
aF0.0
aF0.0
aF0.0
ag71
ag71
ag71
aF0.0
aF0.0
aF0.0
aF0.0
aF0.0
ag71
ag71
aF0.0
ag71
ag71
aF0.0
aF0.0
ag71
ag71
ag71
aF0.0
aF0.0
aF0.0
aF0.0
aF0.0
ag71
aF0.0
aF0.0
aF0.0
aF0.0
aF0.0
aF0.0
aF0.0
aF0.0
ag71
aF0.0
ag71
aF0.0
ag71
ag71
aF0.0
aF0.0
ag71
aF0.0
aF0.0
aF0.0
aF0.0
aF0.0
ag71
aF0.0
aF0.0
aF0.0
ag71
aF0.0
ag71
ag71
ag71
aF0.0
aF0.0
aF0.0
aF0.0
aF0.0
aF0.0
aF0.0
ag71
ag71
aF0.0
ag71
ag71
ag71
aF0.0
aF0.0
aF0.0
aF0.0
ag71
ag71
aF0.0
ag71
ag71
aF0.0
ag71
aF0.0
aF0.0
ag71
aF0.0
aF0.0
ag71
aF0.0
aF0.0
aF0.0
aS'Theresa'
p423
aS'Victor'
p424
aS'Silvio'
p425
aS'Abe'
p426
aS'Fidel'
p427
aS'Maria'
p428
aS'David'
p429
aS'Benedetta'
p430
aS'Mao'
p431
aS'Nelson'
p432
ag432
aS'Giorgio'
p433
aS'Richard'
p434
aS'Madeline'
p435
aS'Nicolas'
p436
aS'Vincent'
p437
aS'Saddam'
p438
aS'Donald'
p439
aS'Virginio'
p440
aS'Francois'
p441
aS'Sylvie'
p442
aS'Giovanni Battista'
p443
ag434
aS'Pascal'
p444
aS'Emmanuel'
p445
aS'Matteo'
p446
aS'Angela'
p447
aS'Vladimir'
p448
aS'Susanne'
p449
ag429
aS'Jean-Jacques'
p450
aS'Winston'
p451
aS'Christian'
p452
aS'Elise'
p453
aS'Kim'
p454
aS'Barack'
p455
aS'Henry'
p456
aS'Indira'
p457
ag446
aS'Alain'
p458
aS'Arafat'
p459
aS'Leo'
p460
aS'Dylan'
p461
aS'Suo Kyi'
p462
aS'Jacky'
p463
aS'Franklin'
p464
aS'Pepe'
p465
aS'Georges'
p466
aS'Arnold'
p467
aS'Franca'
p468
aS'George'
p469
aS'Riccardo'
p470
aS'Marco'
p471
aS'Nathalie'
p472
aS'Justin'
p473
aS'Anne-Catherine'
p474
aS'Massimo'
p475
aS'Pedro'
p476
aS'Leon'
p477
aS'Marta'
p478
aS'Ronald'
p479
aS'Giancarlo'
p480
aS'Philippe'
p481
aS'Luigi'
p482
aS'Jonas'
p483
aS'Chloe'
p484
aS'Melanie'
p485
aS'Thierry'
p486
aS'Enrico'
p487
aS'Margaret'
p488
aS'Gabriele'
p489
aS'Eric'
p490
aS'Yves'
p491
aS'John'
p492
aS'Rafael'
p493
aS'Francis'
p494
ag436
aS'Jeffrey'
p495
ag469
aS'Sean'
p496
aS'Stephen'
p497
aS'Bruce'
p498
aS'Ornella'
p499
aS'Daniel'
p500
aS'Gwyneth'
p501
aS'Celine'
p502
aS'Franco'
p503
aS'Graciela'
p504
aS'Leonardo'
p505
aS'Corinne'
p506
aS'Suresh'
p507
aS'Hilary'
p508
aS'Brad'
p509
aS'Anne'
p510
aS'Lewis'
p511
aS'Ben'
p512
aS'Sofia'
p513
aS'Daria'
p514
aS'Ellen'
p515
aS'Anna'
p516
aS'Paul'
p517
aS'Usain'
p518
aS'Ivan'
p519
ag428
aS'Laurie Blue'
p520
aS'Woody'
p521
aS'Nicole'
p522
aS'Miley'
p523
aS'Matthew'
p524
ag492
aS'Isabel '
p525
aS'Lorenzo'
p526
aS'Winona'
p527
aS'Ylva'
p528
aS'Giselle'
p529
ag473
aS'Tim'
p530
aS'Stefani Lady Gaga'
p531
aS'Marlene'
p532
aS'Daniele'
p533
aS'Bob'
p534
ag515
aS'Alessandro'
p535
aS'Charlize'
p536
aS'Jennifer'
p537
aS'Anne-Florence'
p538
aS'Morgan'
p539
ag537
aS'Roberto'
p540
aS'Emma'
p541
aS'Katy'
p542
aS'Ian'
p543
aS'Patrick'
p544
aS'Christina'
p545
aS'Monica'
p546
ag434
ag487
aS'Kate'
p547
aS'Tenzin'
p548
aS'Paola'
p549
aS'George R. R.'
p550
ag492
aS'Martina'
p551
ag537
aS'Uma'
p552
aS'Elton'
p553
ag429
aS'Vasco'
p554
aS'J.K.'
p555
aS'Mariah'
p556
aS'Keira'
p557
aS'Steven'
p558
aS'Rossella'
p559
aS'Alyson'
p560
aS'Marshall Bruce '
p561
aS'Florin'
p562
aS'Elena'
p563
aS'Ronaldo'
p564
aS'Jodie'
p565
aS'Terence'
p566
aS'Neil'
p567
aS'Tom'
p568
ag546
aS'Quentin'
p569
aS'Marcela'
p570
aS'Ursula'
p571
aS'Jury'
p572
ag549
aS'Nadim'
p573
aS'Sumner'
p574
aS'Julia'
p575
aS'Natalie'
p576
aS'Angelina'
p577
aS'Robert'
p578
aS'Catarina'
p579
ag540
aS'Harrison'
p580
aS'Federico'
p581
aS'Robyn'
p582
ag454
aS'Kate Isobelle'
p583
aS'Cameron'
p584
aS'Britney'
p585
aS'Aurelio'
p586
aS'Andrea'
p587
aS'Ed'
p588
aS'Luca'
p589
aS'Sharon'
p590
aS'Roger'
p591
aS'Serena'
p592
ag261
ag71
aVFounder & Owner of FininvestOwner of S.S. Monza 1912
p593
ag71
aS'Lawyer'
p594
ag71
ag261
ag71
ag261
aVActivist, Politician, Philanthropist, Lawyer
p595
ag71
ag261
ag261
ag71
ag71
ag71
ag261
aVPolitician, businessman, real estate developer
p596
aS'Politician'
p597
ag71
ag71
ag71
ag261
ag71
ag261
ag261
ag261
ag261
ag71
ag71
ag71
ag261
ag71
ag71
ag261
ag261
ag261
aS'Politician'
p598
ag261
ag261
aS'Civil engineer'
p599
ag71
ag71
ag71
ag71
ag71
ag71
ag71
ag261
ag71
aVBusinessman, politician
p600
ag71
ag71
ag71
aS'Teacher,Politician'
p601
ag71
ag261
ag71
ag261
ag71
aVActor, politician, sports commentator
p602
ag71
ag71
ag261
ag261
ag71
ag71
ag71
ag261
aVBarrister, company director, chemist, politician, statesman
p603
ag71
ag71
ag71
ag261
ag261
aS'Film director, screenwriter, film producer, film composer'
p604
aS'Actor, director, producer'
p605
aS'Actor'
p606
aS'Actor, screenwriter, producer with Smoke House Pictures, director'
p607
aS'Actor, filmmaker'
p608
aVWriter, actor, television producer, singer, musician
p609
aS'Actor, producer with Cheyenne Enterprises, singer'
p610
ag71
aVActor, producer
p611
aVActress, singer, writer
p612
ag71
ag261
ag71
aVActor, Appian Way Productions
p613
ag71
aS'Politician'
p614
aVActress, producer
p615
aVActor, film producer
p616
ag71
ag71
aVActor, filmmaker
p617
aVDirector, producer, screenwriter, actress
p618
ag71
aVActress, director, producer
p619
aS'Actress'
p620
aVSinger-songwriter, music and film producer, businessman
p621
ag261
ag71
ag71
ag71
aS'Director, writer, actor, comedian'
p622
aVActress, producer
p623
aVSinger, songwriter, actress
p624
aS'Actor, producer'
p625
ag261
ag71
ag71
aS'Actress'
p626
ag71
ag71
aVSinger, songwriter
p627
aS'Film director, film producer, writer, artist'
p628
ag71
ag71
ag71
aVSinger-songwriter, artist, writer
p629
ag261
ag261
aVActress, Producer
p630
aS'Actress'
p631
ag71
aS'Actor'
p632
aVActress, film producer, businessperson
p633
aVFilm director, screenwriter, actor, comedian
p634
aVActress, model, activist
p635
aVSinger, songwriter, actress, businesswoman, philanthropist, television judge
p636
aS'<td class="role" style="line-height:1.4em;">Novelist, screenwriter'
p637
aVActor, Race car driver
p638
aVSinger, songwriter, actress, television personality
p639
ag71
aVActor
p640
ag71
aS'Actress'
p641
ag71
ag71
aVNovelist, short story writer, screenwriter
p642
aS'Actor, producer, singer, dancer'
p643
ag71
aVSinger, actress, dancer, producer
p644
aVActress, model
p645
aVMusician, singer-songwriter, composer
p646
ag261
aS'singer'
p647
ag71
aVSinger, songwriter, actress, record producer
p648
aS'Actress'
p649
aS'Filmmaker'
p650
ag71
aVActress, television host
p651
ag71
ag71
ag71
ag261
aVActress, director, producer
p652
aS'Actor, film director, screenwriter, film producer'
p653
aVActor, writer, producer, comedian, magician, singer
p654
aS'Actor, producer'
p655
aS'Actress \xe2\x80\xa2 fashion model'
p656
aVDirector, writer, actor
p657
ag71
ag71
ag261
ag71
ag71
ag71
aS'Actress, producer'
p658
aVActress, film producer, director
p659
aVActress, filmmaker, activist
p660
aVActor, singer-songwriter
p661
ag71
ag71
aVActor, producer
p662
ag71
ag71
aVTelevision personality, socialite, actress, businesswoman, model
p663
ag71
aVActress, producer, model, author
p664
aVSinger, dancer, actress
p665
ag71
ag261
aVSinger, songwriter, record producer, guitarist, actor
p666
ag71
aS'Actress, model, film producer'
p667
ag261
ag261
aS'May'
p668
aS'Allamand'
p669
aS'Berlusconi'
p670
aS'Shinzo'
p671
aS'Castro'
p672
aS'Lopes'
p673
aS'Cameron'
p674
aS'Rossi'
p675
aS'Zedong'
p676
aS'Mandela'
p677
aS'Rockfeller'
p678
aS'Napolitano'
p679
aS'Nixon'
p680
aS'Donne'
p681
aS'Freymond'
p682
aS'Jaques'
p683
aS'Hussein'
p684
aS'Trump'
p685
aS'Merola'
p686
aS'Hollande'
p687
aS'Podio'
p688
aS'Di Natale'
p689
aS'Neal'
p690
aS'Golay'
p691
aS'Macron'
p692
aS'Renzi'
p693
aS'Merkel'
p694
aS'Putin'
p695
aS'Zaccaria'
p696
aS'Boulaz'
p697
aS'Aubert'
p698
aS'Churchill'
p699
aS'Burdet'
p700
aS'Buckle'
p701
aS'Jong-un'
p702
aS'Obama'
p703
aS'Kissinger'
p704
aS'Gandhi'
p705
aS'Salvini'
p706
aS'Berset'
p707
aS'Yasser'
p708
aS'Gaillard'
p709
aS'Montefusco'
p710
aS'Aung san'
p711
aS'Colomb'
p712
aS'Roosvelt'
p713
aS'Mujica'
p714
aS'Borer'
p715
aS'Schwarzenegger'
p716
aS'Filippini'
p717
aS'Bush'
p718
aS"Dall'Olio"
p719
aS'Carenza'
p720
aS'Jaccard'
p721
aS'Trudeau'
p722
aS'Aubert-Despland'
p723
aS"D'Alema"
p724
aS'Sanchez'
p725
aS'Trotsky'
p726
aS'Pinto'
p727
aS'Reagan'
p728
aS'Benaglia'
p729
aS'Deriaz'
p730
aS'Di Maio'
p731
aS'Kocher'
p732
aS'Besse'
p733
aS'Wyss'
p734
aS'Campiche'
p735
aS'Letta'
p736
aS'Thatcher'
p737
aS'Minghetti'
p738
aS'Zuger'
p739
aS'Felix'
p740
aS'Kennedy'
p741
aS'Nadal'
p742
aS'Coppola'
p743
aS'Cage'
p744
aS'Morgan'
p745
aS'Clooney'
p746
aS'Penn'
p747
aS'King'
p748
aS'Willis'
p749
aS'Di Pietro'
p750
aS'Radcliffe'
p751
aS'Paltrow'
p752
aS'Exquis'
p753
aS'Battiato'
p754
aS'Bermudez'
p755
aS'DiCaprio'
p756
aS'Bonvin'
p757
aS'Rawat'
p758
aS'Swank'
p759
aS'Pitt'
p760
aS'Bottani'
p761
aS'Armitage'
p762
aS'Affleck'
p763
ag743
aS'Arkhipova'
p764
aS'Pompeo'
p765
aS'Paquin'
p766
aS'McCartney'
p767
aS'Bolt'
p768
aS'Selva'
p769
aS'Borghesani'
p770
aS'Adkins'
p771
aS'Allen'
p772
aS'Kidman'
p773
aS'Cyrus'
p774
aS'McConaughey'
p775
aS'Oliver'
p776
aS'Mebarak Ripoll'
p777
aS'Cherubini'
p778
aS'Ryder'
p779
aS'Hellgren'
p780
aS'Knowles-Carter'
p781
aS'Bieber'
p782
aS'Burton'
p783
aS'Germanotta'
p784
aS'Simoes'
p785
aS'Frossard'
p786
aS'Dylan'
p787
aS'DeGeneres'
p788
aS'Agostini'
p789
aS'Theron'
p790
aS'Lawrence'
p791
aS'Bitbol'
p792
aS'Freeman'
p793
aS'Aniston'
p794
aS'Benigni'
p795
aS'Watson'
p796
aS'Perry'
p797
aS'McEwan'
p798
aS'Dempsey'
p799
aS'Aguilera'
p800
aS'Prodon'
p801
aS'Gere'
p802
aS'Tibaldi'
p803
aS'Winslet'
p804
aS'Gyatso'
p805
aS'Tofani'
p806
aS'Martin'
p807
aS'Travolta'
p808
aS'Merli'
p809
aS'Lopez'
p810
aS'Thurman'
p811
aS'John'
p812
aS'Letterman'
p813
ag675
aS'Rowling'
p814
aS'Carey'
p815
aS'Knightley'
p816
aS'Spielberg'
p817
aS'Tomasi'
p818
aS'Hannigan'
p819
aS'Mathers III'
p820
aS'Dinu'
p821
aS'Peta'
p822
aS'Cristiano'
p823
aS'Foster'
p824
aS'Hill'
p825
aS'Harris'
p826
aS'Cruise'
p827
aS'Bellucci'
p828
aS'Tarantino'
p829
aS'Rincon'
p830
aS'Utz'
p831
aS'Chechi'
p832
aS'Minelli'
p833
aS'Akhtar'
p834
aS'Gordon Matthew Thomas'
p835
aS'Roberts'
p836
aS'Portman'
p837
aS'Jolie'
p838
aS'Downey'
p839
aS'Barreira de Sousa'
p840
aS'Bertoni'
p841
aS'Ford'
p842
aS'Bellentani'
p843
aS'Fenty'
p844
aS'Kardashian'
p845
aS'Furler'
p846
aS'Diaz'
p847
aS'Spears'
p848
aS'Bay'
p849
aS'Bocelli'
p850
aS'Sheeran'
p851
aS'Pescatore'
p852
aS'Stone'
p853
aS'Federer'
p854
aS'Williams'
p855
aS'    is a British politician serving as Prime Minister of the United Kingdom and Leader of the Conservative Party since . She served as Home Secretary from  to .  was first elected Member of Parliament  for Maidenhead in . Ideologically, she identifies herself as a one-nation conservative.\n '
p856
aS' NA'
p857
aS'   is an Italian media tycoon and politician who has served as Prime Minister of Italy in four governments.\n Founder & Owner of FininvestOwner of S.S. Monza 1912'
p858
aS' NA'
p859
aS'   was a Cuban communist revolutionary and politician who governed the Republic of Cuba as Prime Minister from  to  and then as President from  to . A Marxist-Leninist and Cuban nationalist,  also served as the First Secretary of the Communist Party of Cuba from  until . Under his administration, Cuba became a one-party communist state, while industry and business were nationalized and state socialist reforms were implemented throughout society.\n Lawyer'
p860
aS' NA'
p861
aS'    is a British politician who served as Prime Minister of the United Kingdom from  to  and Leader of the Conservative Party from  to . He was Member of Parliament  for Witney from  to . He identifies as a one-nation conservative, and has been associated with both economically liberal and socially liberal policies.\n '
p862
aS' NA'
p863
aS"  , also known as Chairman , was a Chinese communist revolutionary who became the founding father of the People's Republic of China, which he ruled as the Chairman of the Communist Party of China from its establishment in  until his death in . His theories, military strategies, and political policies are collectively known as ism.\n "
p864
aS"    was a South African anti-apartheid revolutionary, political leader, and philanthropist who served as President of South Africa from  to . He was the country's first black head of state and the first elected in a fully representative democratic election. His government focused on dismantling the legacy of apartheid by tackling institutionalised racism and fostering racial reconciliation. Ideologically an African nationalist and socialist, he served as President of the African National Congress  party from  to .\n Activist, Politician, Philanthropist, Lawyer"
p865
aS' NA'
p866
aS' ,   is an Italian politician who served as the th President of the Republic from  to , the only Italian President to be reelected to the Presidency. Due to his dominant position in Italian politics, critics often refer to him as Re  . He is the longest serving President in the history of the modern Italian Republic, which has been in existence since .\n '
p867
aS'    was the th President of the United States from  until  and the only president to resign from the position. He had previously served as the th Vice President of the United States from  to , and prior to that as both a U.S. Representative and Senator from California.\n '
p868
aS' NA'
p869
aS' NA'
p870
aS' NA'
p871
aS'    transliteration"> Husayn \'Abd al-Magid al-Tikriti;  April  -  December ) was President of Iraq from  July  until  April . A leading member of the revolutionary Arab Socialist Ba\'ath Party, and later, the Baghdad-based Ba\'ath Party and its regional organization the Iraqi Ba\'ath Party--which espoused Ba\'athism, a mix of Arab nationalism and socialism-- played a key role in the  coup  that brought the party to power in Iraq.\n '
p872
aS'    is the th and current President of the United States. Before entering politics, he was a businessman and television personality.\n Politician, businessman, real estate developer'
p873
aS'   is an Italian politician.  is a member of the Democratic Party and the current mayor of Bologna.\n Politician'
p874
aS' NA'
p875
aS' NA'
p876
aS' NA'
p877
aS"    is an American politician and the U.S. Representative for Massachusetts's st congressional district. He is a member of the Democratic Party and a former city councilor and mayor of Springfield, Massachusetts. He is currently the dean of the Massachusetts delegation to the House of Representatives.\n "
p878
aS' NA'
p879
aS' Jean-Michel Frederic   is a French politician serving as President of France since . He previously was Minister of the Economy, Industry and Digital Affairs from  to .\n '
p880
aS'   is an Italian politician who served as the Prime Minister of Italy from February  until December . After the rejection of his constitutional reform in the December  referendum,  formally resigned on  December when Foreign Affairs Minister Paolo Gentiloni was appointed new head of the government by President Sergio Mattarella. His government is the fourth longest one in the history of Italy as a republic.  served as President of the Province of Florence from  to  and as Mayor of Florence from  to .\n '
p881
aS'    is a German politician serving as Chancellor of Germany since  and leader of the centre-right Christian Democratic Union  since .  has been widely described as the de facto leader of the European Union, the most powerful woman in the world, and the leader of the Free World.\n '
p882
aS'    is a Russian politician and former intelligence officer serving as President of Russia since , previously holding the position from  until . In between his presidential terms he was also the Prime Minister of Russia under his close associate Dmitry Medvedev.\n '
p883
aS' NA'
p884
aS' NA'
p885
aS' NA'
p886
aS'  was a British politician, statesman, army officer, and writer, who was Prime Minister of the United Kingdom from  to  and again from  to . As Prime Minister,  led Britain to victory in the Second World War.  represented five constituencies during his career as Member of Parliament . Ideologically an economic liberal and British imperialist, he began and ended his parliamentary career as a member of the Conservative Party, which he led from  to , but for twenty years from  he was a prominent member of the Liberal Party.\n '
p887
aS' NA'
p888
aS' NA'
p889
aS"   is a North Korean politician serving as Supreme Leader of North Korea since  and Leader of the Workers' Party of Korea since .  is the second child of  Jong-il  and Ko Yong-hui . The grandson of  Il-sung, the first leader of North Korea from  to , he is the first North Korean leader to have been born after the country's founding.\n "
p890
aS'   is an American politician who served as the th President of the United States from  to . A member of the Democratic Party, he was the first African American to be elected to the presidency and previously served as a United States Senator from Illinois .\n '
p891
aS'    is an American statesman, political scientist, diplomat and geopolitical consultant who served as United States Secretary of State and National Security Advisor under the presidential administrations of Richard Nixon and Gerald Ford. A Jewish refugee who fled Nazi Germany with his family in , he became National Security Advisor in  and U.S. Secretary of State in . For his actions negotiating a ceasefire in Vietnam,  received the  Nobel Peace Prize under controversial circumstances, with two members of the committee resigning in protest.  later sought, unsuccessfully, to return the prize after the ceasefire failed.\n '
p892
aS'   , was an Indian politician, stateswoman and a central figure of the Indian National Congress. She was the first and, to date, the only female Prime Minister of India.   was the daughter of Jawaharlal Nehru, the first prime minister of India. Despite her surname , she is not related to the family of Mahatma ;  is a common surname in Gujarat. She served as Prime Minister from January  to March  and again from January  until her assassination in October , making her the second longest-serving Indian Prime Minister after her father.\n Politician'
p893
aS'   is an Italian politician serving as Deputy Prime Minister of Italy and Minister of the Interior since  June . He has also been Federal Secretary of Northern League since December  and the leader of Us with  since December . He has been a Senator in the Italian Senate since March . He previously served as a Member of the European Parliament  for the constituency of North-West Italy from  to .\n '
p894
aS"   is a Swiss politician of the Social Democratic Party. Since  January , he is a member of the Swiss Federal Council, the seven member Swiss executive, and head of the Federal Department of Home Affairs . On  January , he took office as President of the Swiss Confederation, head of the Federal Council; at age ,  is the youngest President of the Confederation since Marcel Pilet-Golaz in . Before being elected to the Federal Council in December , he was a member of the Swiss Council of States for the Canton of Fribourg since , serving as the chamber's president during the / term.\n "
p895
aS'Mohammed  Abdel Rahman Abdel Raouf  al-Qudwa al-Husseini , popularly known as    or by his kunya Abu Ammar , was a Palestinian political leader. He was Chairman of the Palestine Liberation Organization  from  to  and President of the Palestinian National Authority  from  to . Ideologically an Arab nationalist, he was a founding member of the Fatah political party, which he led from  until .\n Civil engineer'
p896
aS' NA'
p897
aS' NA'
p898
aS' NA'
p899
aS' NA'
p900
aS' NA'
p901
aS' NA'
p902
aS' NA'
p903
aS'    is an Austrian-American actor, filmmaker, businessman, investor, author, philanthropist, activist, politician, and former professional bodybuilder and powerlifter. He served two terms as the th Governor of California from  to .\n '
p904
aS' NA'
p905
aS'    is an American politician who served as the rd President of the United States from  to . He had previously served as the th Governor of Texas from  to .\n Businessman, politician'
p906
aS' NA'
p907
aS' NA'
p908
aS' NA'
p909
aS'     is a Canadian politician serving as the rd and current Prime Minister of Canada since  and Leader of the Liberal Party since .  is the second-youngest Canadian Prime Minister, after Joe Clark; he is also the first to be related to a previous holder of the post, as the eldest son of Pierre .\n Teacher,Politician'
p910
aS' NA'
p911
aS'   is an Italian politician who was the rd Prime Minister from  to . Later he was Deputy Prime Minister and Minister of Foreign Affairs from  to . He is also a journalist and served for a time as national secretary of the Democratic Party of the Left . \nSometimes media refers to him as Leader Maximo, due to his first name , but also for his dominant position in the left-wing coalitions during the Second Republic. Earlier in his career he was a member of the Italian Communist Party, and he was the first former communist to become prime minister of a NATO country.\n '
p912
aS' NA'
p913
aS'   was a Russian revolutionary, Marxist theorist, and Soviet politician whose particular strain of Marxist thought is known as ism.\n '
p914
aS' NA'
p915
aS'    was an American politician and actor who served as the th President of the United States from  to . Prior to the presidency, he was a Hollywood actor and trade union leader before serving as the rd Governor of California from  to .\n Actor, politician, sports commentator'
p916
aS' NA'
p917
aS' NA'
p918
aS'   is an Italian politician serving as Deputy Prime Minister of Italy and Minister of Economic Development, Labour and Social Policies since  June . He previously served as Vice President of the Chamber of Deputies in the XVII Italian legislature. He is the leader of the Five Star Movement, an anti-establishment party founded by Beppe Grillo.\n '
p919
aS'  is a musician and composer born in Nyon  in . He is based in Biel/Bienne  since the late s. \n '
p920
aS' NA'
p921
aS' NA'
p922
aS' NA'
p923
aS'   is an Italian politician who was Prime Minister of Italy from  to , leading a grand coalition comprising the centre-left Democratic Party, the centre-right People of Freedom, and the centrist Civic Choice. He has also been a Member of the Chamber of Deputies since .  was Minister of European Affairs from  to  and Minister of Industry from  to , and served as Secretary to the Council of Ministers from  to .\n '
p924
aS'  ,   was a British stateswoman who served as Prime Minister of the United Kingdom from  to  and Leader of the Conservative Party from  to . She was the longest-serving British prime minister of the th century and the first woman to hold that office. A Soviet journalist dubbed her "The \'Iron Lady", a nickname that became associated with her uncompromising politics and leadership style. As Prime Minister, she implemented policies known as ism.\n Barrister, company director, chemist, politician, statesman'
p925
aS' NA'
p926
aS' NA'
p927
aS' NA'
p928
aS'   , commonly referred to by his initials JFK, was an American politician who served as the th President of the United States from January  until his assassination in November . He served at the height of the Cold War, and the majority of his presidency dealt with managing relations with the Soviet Union. A member of the Democratic Party,  represented Massachusetts in the U.S. House of Representatives and Senate prior to becoming president.\n '
p929
aS"    is a Spanish professional tennis player, currently world No.  in men's singles tennis by the Association of Tennis Professionals .\n "
p930
aS'    is an American film director, producer, screenwriter and film composer. He was a central figure in the New Hollywood wave of filmmaking.\n Film director, screenwriter, film producer, film composer'
p931
aS" Kim Coppola , known professionally as  , is an American actor, director and producer. During his early career,  starred in a variety of films such as Valley Girl , Racing with the Moon , Birdy , Peggy Sue Got Married , Raising Arizona , Moonstruck , Vampire's Kiss , Wild at Heart , Fire Birds , Honeymoon in Vegas , and Red Rock West .\n Actor, director, producer"
p932
aS"    is an American actor. He is known for his roles as John Winchester on the fantasy horror series Supernatural , Denny Duquette on the medical drama series Grey's Anatomy , The Comedian in the superhero film Watchmen , Jason Crouse on the political drama series The Good Wife , Negan on the horror drama series The Walking Dead , and Harvey Russell in Rampage .\n Actor"
p933
aS'    is an American actor, filmmaker and businessman. He is the recipient of three Golden Globe Awards and two Academy Awards, one for acting in Syriana  and the other for co-producing Argo . In , he was the recipient of the AFI Live Achievement Award, at the age of .\n Actor, screenwriter, producer with Smoke House Pictures, director'
p934
aS'    is an American actor and filmmaker. He has won two Academy Awards, for his roles in the mystery drama Mystic River  and the biopic Milk .\n Actor, filmmaker'
p935
aS'    is an American author of horror, supernatural fiction, suspense, science fiction and fantasy. His books have sold more than  million copies, many of which have been adapted into feature films, miniseries, television series, and comic books.  has published  novels, including seven under the pen name Richard Bachman, and six non-fiction books. He has written around  short stories, most of which have been published in book collections.\n Writer, actor, television producer, singer, musician'
p936
aS'    is an American actor, producer, and singer. Born to a German mother and American father in Idar-Oberstein, Germany, he moved to the United States with his family in . His career began on the Off-Broadway stage in the s. He later achieved fame with his leading role on the hit television series Moonlighting . He has since appeared in over  films and is widely regarded as an "action hero" due to his portrayal of John McClane in the Die Hard franchise , and other such roles.\n Actor, producer with Cheyenne Enterprises, singer'
p937
aS' NA'
p938
aS'    is an English actor and producer best known for his role as the titular protagonist in the Harry Potter film series, based on the novels by J. K. Rowling.\n Actor, producer'
p939
aS'   is an American actress, businesswoman, socialite, lifestyle guru, singer, and food writer. She has won various accolades, including an Academy Award, a Golden Globe Award, a Primetime Emmy Award and two Screen Actors Guild Awards.\n Actress, singer, writer'
p940
aS' NA'
p941
aS"   is an Italian singer-songwriter, composer, filmmaker and, under the pseudonym Suphan Barzani, also a painter. 's songs contain esoteric, philosophical and religious themes.\n "
p942
aS' NA'
p943
aS'    is an American actor, film producer, and environmentalist.  began his career by appearing in television commercials in the late s. He next had recurring roles in various television series, such as the soap opera Santa Barbara and the sitcom Growing Pains.\n Actor, Appian Way Productions'
p944
aS' NA'
p945
aS'   is an Indian politician from the Bharatiya Janata Party and a  member of the Rajasthan Legislative Assembly representing the Pushkar Vidhan Sabha constituency of Rajasthan.\n Politician'
p946
aS'    is an American actress and producer. She has received two Academy Awards, two Golden Globe Awards, two Critics Choice Awards, and a Screen Actors Guild Award.\n Actress, producer'
p947
aS'   is an American actor and film producer. He has received multiple awards and nominations including an Academy Award as producer under his own company Plan B Entertainment.\n Actor, film producer'
p948
aS' NA'
p949
aS' NA'
p950
aS'jamin Geza -Boldt  is an American actor and filmmaker. His accolades include two Academy Awards, three Golden Globe Awards, two BAFTA Awards, and two Screen Actors Guild Awards. He began his career as a child and starred in the PBS educational series The Voyage of the Mimi in , before a second run in . He later appeared in the independent coming-of-age comedy Dazed and Confused  and various Kevin Smith films, including Chasing Amy  and Dogma .  gained wider recognition when he and childhood friend Matt Damon won the Golden Globe and Academy Award for Best Original Screenplay for writing Good Will Hunting , which they also starred in. He then established himself as a leading man in studio films, including the disaster drama Armageddon , the romantic comedy Forces of Nature , the war drama Pearl Harbor , and the spy thriller The Sum of All Fears .\n Actor, filmmaker'
p951
aS'    is an American screenwriter, director, producer, and former actress.\n Director, producer, screenwriter, actress'
p952
aS' NA'
p953
aS'    is an American actress, director, and producer. She is one of the highest paid television actors, having signed a $ million annual contract with the American Broadcasting Company in late . She was honored with the  Special Achievement in Entertaining by the National Italian American Foundation for her contributions to the entertainment industry.\n Actress, director, producer'
p954
aS"    is a New Zealand-Canadian-American  actress. She was born in Manitoba and brought up in Wellington, New Zealand, before moving to Los Angeles during her youth. She completed a year at Columbia University before leaving to focus on her acting career. As a child, she played the role of Flora McGrath in Jane Campion's romantic drama film The Piano , despite having had little acting experience. For her performance, she received the Academy Award for Best Supporting Actress at the age of , making her the second-youngest winner in Oscar history.\n Actress"
p955
aS'     is an English singer-songwriter, multi-instrumentalist, and composer. He gained worldwide fame as the bass guitarist and singer for the rock band the Beatles, widely considered the most popular and influential group in the history of popular music. His songwriting partnership with John Lennon remains the most successful in history. After the group disbanded in , he pursued a solo career and formed the band Wings with his first wife, Linda, and Denny Laine.\n Singer-songwriter, music and film producer, businessman'
p956
aS'     is a Jamaican retired sprinter and world record holder in the  metres,  metres and  x  metres relay. His reign as Olympic Games champion in all of these events spans three Olympics. Owing to his achievements and dominance in sprint competition, he is widely considered to be the greatest sprinter of all time.\n '
p957
aS' NA'
p958
aS' NA'
p959
aS' NA'
p960
aS'    is an American director, writer, actor, and comedian whose career spans more than six decades. He began his career as a comedy writer in the s, writing jokes and scripts for television and publishing several books of short humor pieces. In the early s,  began performing as a stand-up comedian, emphasizing monologues rather than traditional jokes. As a comedian, he developed the persona of an insecure, intellectual, fretful nebbish, which he maintains is quite different from his real-life personality. In , Comedy Central ranked  fourth on a list of the  greatest stand-up comedians, while a UK survey ranked  as the third-greatest comedian.\n Director, writer, actor, comedian'
p961
aS'     is an Australian actress and producer. She is the recipient of multiple awards, including an Academy Award, two Primetime Emmy Awards, five Golden Globe Awards, the Silver Bear for Best Actress, and a Cannes Film Festival special award.\n Actress, producer'
p962
aS'    is an American singer, songwriter, and actress. After playing minor roles in the television series Doc and the film Big Fish in her childhood, she became a teen idol starring as the character  Stewart on the Disney Channel television series Hannah Montana in . Her father Billy   also starred on the series, which aired for four seasons until .\n Singer, songwriter, actress'
p963
aS"     is an American actor and producer. He first gained notice for his breakout role in the coming-of-age comedy Dazed and Confused , before going on to appear in the slasher film Texas Chainsaw Massacre: The Next Generation , A Time to Kill , the comedy film Larger than Life , Steven Spielberg's historical drama Amistad , the science fiction drama Contact , the comedy EDtv , and the war film U- .\n Actor, producer"
p964
aS"    is an English comedian, writer, producer, political commentator, actor, and television host.  started his career as a stand-up comedian, both in the United Kingdom and United States. He came to wider attention for his work on The Daily Show with Jon Stewart as its senior British correspondent from  to .  won three Primetime Emmy Awards for his work as a writer on The Daily Show and was its guest host for an eight-week period in . In addition to The Daily Show,  co-hosted the satirical comedy podcast The Bugle  with Andy Zaltzman, with whom  had previously co-hosted the radio series Political Animal, and hosted  's New York Stand-Up Show on Comedy Central from  to . He has also acted on television, most notably in a recurring role as Ian Duncan on the NBC sitcom Community.\n "
p965
aS' NA'
p966
aS' NA'
p967
aS"   is an American actress and film producer. One of the most successful and iconic actresses of the s, she made her film debut in  Lucas . As Lydia Deetz, a goth teenager in Tim Burton's Beetlejuice , she garnered critical acclaim and widespread recognition. After appearances in film and on television,  continued her acting career with the cult film Heathers , a controversial satire that has since become a landmark teen film. She later appeared in the coming of age drama Mermaids , earning a Golden Globe Award nomination, and in the same year appeared alongside Johnny Depp in Burton's dark fairy-tale Edward Scissorhands , and shortly thereafter opposite Gary Oldman in Francis Ford Coppola's gothic horror romance Bram Stoker's Dracula .\n Actress"
p968
aS' NA'
p969
aS' NA'
p970
aS'    is a Canadian singer-songwriter. After talent manager Scooter Braun discovered him through his YouTube videos covering songs in  and he signed to RBMG,  released his debut EP, My World, in late . It was certified platinum in the US. He became the first artist to have seven songs from a debut record chart on the Billboard Hot .  released his first full-length studio album, My World ., in . It debuted at number one in several countries, was certified triple platinum in the US, and contained his single "Baby".\n Singer, songwriter'
p971
aS"   is an American film director, producer, artist, writer, and animator. He is known for his dark, gothic, and eccentric horror and fantasy films such as Beetlejuice , Edward Scissorhands , The Nightmare Before Christmas , Ed Wood , Sleepy Hollow , Corpse Bride , Sweeney Todd: The Demon Barber of Fleet Street , Dark Shadows , and Frankenweenie . He is also known for blockbusters such as the adventure comedy Pee-wee's Big Adventure , the superhero films Batman  and its first sequel Batman Returns , the sci-fi film Planet of the Apes , the fantasy drama Big Fish , the musical adventure film Charlie and the Chocolate Factory , and the fantasy film Alice in Wonderland .\n Film director, film producer, writer, artist"
p972
aS' NA'
p973
aS' NA'
p974
aS' NA'
p975
aS'   is an American singer-songwriter, author, and artist who has been an influential figure in popular music and culture for more than five decades. Much of his most celebrated work dates from the s, when he became a reluctant "voice of a generation" with songs such as "Blowin\' in the Wind" and "The Times They Are a-Changin\'" which became anthems for the Civil Rights Movement and anti-war movement. In , he controversially "went electric", branching out from his earlier work and alienating some fans of the American folk music revival, recording a six-minute single, "Like a Rolling Stone", which enlarged the scope of popular music.\n Singer-songwriter, artist, writer'
p976
aS'    is an American comedian, television host, actress, writer, producer, and LGBT activist. She starred in the popular sitcom  from  to  and has hosted her syndicated TV talk show, The   Show, since .\n '
p977
aS'   is an Italian retired footballer who played as a defender.\n '
p978
aS'   is a South African-American actress and film producer. She is the recipient of several accolades, including an Academy Award, a Golden Globe Award, and the Silver Bear for Best Actress.\n Actress, Producer'
p979
aS'    is an American actress. Her films have grossed over $. billion worldwide, and she was the highest-paid actress in the world in  and .  appeared in Time  most influential people in the world list in  and in the Forbes Celebrity  list in  and .\n Actress'
p980
aS' NA'
p981
aS'   is an American actor, producer, and narrator.  won an Academy Award in  for Best Supporting Actor with Million Dollar Baby , and he has received Oscar nominations for his performances in Street Smart , Driving Miss Daisy , The Shawshank Redemption , and Invictus . He has also won a Golden Globe Award and a Screen Actors Guild Award.\n Actor'
p982
aS'    is an American actress, film producer, and businessperson. She is the daughter of Greek-born actor John  and American actress Nancy Dow.  gained worldwide recognition for portraying Rachel Green on the television sitcom Friends , a role which earned her a Primetime Emmy Award, a Golden Globe Award, and a Screen Actors Guild Award . The character was widely popular during the airing of the series and was later recognized as one of the greatest female characters in American television.\n Actress, film producer, businessperson'
p983
aS"  ,   is an Italian actor, comedian, screenwriter and director.  He co-wrote, directed and acted in the  film Life Is Beautiful, which won him the Academy Award for Best Actor at the st Oscars Ceremony. He also portrayed Inspector Clouseau's son in Son of the Pink Panther  and has collaborated with filmmaker Jim Jarmusch in three of his films: Down by Law , Night on Earth  and Coffee and Cigarettes .\n Film director, screenwriter, actor, comedian"
p984
aS'    is an English actress, model, and activist. Born in Paris and brought up in Oxfordshire,  attended the Dragon School and trained as an actress at the Oxford branch of Stagecoach Theatre Arts. As a child artist, she rose to prominence after landing her first professional acting role as Hermione Granger in the Harry Potter film series, having acted only in school plays previously.  appeared in all eight Harry Potter films from  to , earning worldwide fame, critical accolades, and around $ million.\n Actress, model, activist'
p985
aS'Katheryn Elizabeth Hudson , known professionally as  , is an American singer, songwriter, and television personality. After singing in church during her childhood, she pursued a career in gospel music as a teenager.  signed with Red Hill Records and released her debut studio album  Hudson under her birth name in , which was commercially unsuccessful. She moved to Los Angeles the following year to venture into secular music after Red Hill ceased operations and she subsequently began working with producers Glen Ballard, Dr. Luke, and Max Martin. After adopting the stage name   and being dropped by The Island Def Jam Music Group and Columbia Records, she signed a recording contract with Capitol Records in April .\n Singer, songwriter, actress, businesswoman, philanthropist, television judge'
p986
aS'     is an English novelist and screenwriter. In , The Times featured him on their list of "The  greatest British writers since " and The Daily Telegraph ranked him number  in their list of the " most powerful people in British culture".\n <td class="role" style="line-height:1.4em;">Novelist, screenwriter'
p987
aS'    is a Scottish American actor, best known for his role as neurosurgeon Derek "McDreamy" Shepherd in Grey\'s Anatomy, starring with Ellen Pompeo . He saw early success as an actor, starring in a number of films in the s, including Can\'t Buy Me Love  and Loverboy . In the s, he mostly appeared in smaller roles in film, such as Outbreak  and television, before landing a lead role in Sweet Home Alabama , a surprise box office hit. He has since starred in other films, including Enchanted , Made of Honor , Valentine\'s Day , Flypaper , Freedom Writers , Transformers: Dark of the Moon , and Bridget Jones\'s Baby .\n Actor, Race car driver'
p988
aS" Maria    is an American singer, songwriter, actress and television personality. Her work has earned her five Grammy Awards, one Latin Grammy Award, and a star on the Hollywood Walk of Fame. She has sold more than  million records worldwide, making her one of the world's best-selling music artists. In , she ranked at number  on Rolling Stones list of  Greatest Singers of All Time, thereby becoming the youngest and the only artist under  to be named. Billboard recognized her as the th most successful artist of the s, and in , Time included  on their annual list of the  most influential people in the world.\n Singer, songwriter, actress, television personality"
p989
aS' NA'
p990
aS"    is an American actor. He began in films in the s, playing a supporting role in Looking for Mr. Goodbar  and a starring role in Days of Heaven . He came to prominence with his role in the film American Gigolo , which established him as a leading man and a sex symbol. He went on to star in many well-received films, including An Officer and a Gentleman , The Cotton Club , Pretty Woman , Primal Fear , Runaway Bride , I'm Not There , Arbitrage  and Norman: The Moderate Rise and Tragic Fall of a New York Fixer . For portraying Billy Flynn in the Academy Award-winning musical Chicago , he won a Golden Globe Award and a Screen Actors Guild Award as part of the cast.\n Actor"
p991
aS' NA'
p992
aS'  ,   is an English actress. She is particularly known for her work in period dramas and tragedies, and is often drawn to portraying troubled women.  is the recipient of several accolades, including three British Academy Film Awards, and is among the few performers to have won Academy, Emmy, and Grammy Awards.\n Actress'
p993
aS' NA'
p994
aS' NA'
p995
aS' Novelist, short story writer, screenwriter'
p996
aS'    is an American actor, film producer, dancer, singer and pilot.  first became known in the s, after appearing on the television series Welcome Back, Kotter  and starring in the box office successes Saturday Night Fever  and Grease . His acting career declined through the s, but enjoyed a resurgence in the s with his role in Pulp Fiction , and he has since starred in films such as Get Shorty, Broken Arrow, Face/Off, Swordfish, Be Cool, Wild Hogs, Hairspray, and The Taking of Pelham .\n Actor, producer, singer, dancer'
p997
aS' NA'
p998
aS'    is an American singer, actress, dancer and producer. In ,  began appearing as a Fly Girl dancer on In Living Color, where she remained a regular until she decided to pursue an acting career in . For her first leading role in the  Selena biopic of the same name,  received a Golden Globe nomination and became the first Latin actress to earn over US$ million for a film. She went on to star in Anaconda  and Out of Sight , later establishing herself as the highest-paid Latin actress in Hollywood.\n Singer, actress, dancer, producer'
p999
aS"    is an American actress and model. She has performed in a variety of films, ranging from romantic comedies and dramas to science fiction and action movies. Following her appearances on the December  and May  covers of British Vogue,  starred in Dangerous Liaisons .  She rose to international prominence with her performance in Pulp Fiction , for which she was nominated for the Academy Award, the BAFTA Award, and the Golden Globe Award for Best Supporting Actress. Often hailed as Quentin Tarantino's muse, she reunited with the director to play the main role in both Kill Bill films , which brought her two additional Golden Globe Award nominations.\n Actress, model"
p1000
aS'    is an English singer, pianist, and composer. He has worked with lyricist Bernie Taupin as his songwriting partner since ; they have collaborated on more than  albums.  has sold more than million records, making him one of the best-selling music artists in the world. He has more than fifty Top  hits, including seven consecutive number one albums in the U.S.,  Billboard Top  singles,  Top , four which reached number two and nine which reached number one. His tribute single "Candle in the Wind ", rewritten in dedication to Diana, Princess of Wales, sold over million copies worldwide and is the best-selling single in the history of the UK and U.S. singles charts. He has also composed music, produced records, and has occasionally acted in films.\n Musician, singer-songwriter, composer'
p1001
aS"    is an American television host, comedian, writer, and producer. He hosted late night television talk shows for  years, beginning with the February , , debut of Late Night with   on NBC, and ending with the May , , broadcast of Late Show with   on CBS. In total,  hosted , episodes of Late Night and Late Show, surpassing friend and mentor Johnny Carson as the longest-serving late night talk show host in American television history. In   was ranked th on TV Guides  Greatest TV Stars of All Time. In , The Late Show with   was ranked seventh on TV Guide's  Greatest TV Shows of All Time.\n "
p1002
aS'<br/>\n  , also known as  or with the nickname Il Blasco, is an Italian singer-songwriter. During his career, he has published  albums  and has written over  songs, as well as lyrics for other artists.  He calls himself a "provocatore"  as throughout his career he has been regularly criticized over his choice of lifestyle and the lyrics in his songs. With more than  millions of copies sold, he is one of the best-selling Italian singers.\n singer'
p1003
aS' NA'
p1004
aS'   is an American singer and songwriter. Referred to as the "Songbird Supreme" by the Guinness World Records, she is noted for her five-octave vocal range, power, melismatic style, and signature use of the whistle register. She rose to superstardom in  after signing to Columbia Records and releasing her eponymous debut album, which peaked atop the Billboard .  became the first and only artist to have their first five singles reach number-one on the U.S. Billboard Hot  chart, from "Vision of Love" to "Emotions".\n Singer, songwriter, actress, record producer'
p1005
aS'     is an English actress. She has worked in the British and American film industries, and has starred in Broadway and West End theatre productions. She has won an Empire Award and multiple nominations for British Academy, Golden Globe, and Academy Awards.\n Actress'
p1006
aS'      is an American filmmaker. He is considered one of the founding pioneers of the New Hollywood era and one of the most popular directors and producers in film history.\n Filmmaker'
p1007
aS' NA'
p1008
aS'    is an American actress. She is best known for her roles as Willow Rosenberg on the television series Buffy the Vampire Slayer , Lily Aldrin on the sitcom How I Met Your Mother , and Michelle Flaherty in the American Pie film series .\n Actress, television host'
p1009
aS' NA'
p1010
aS' NA'
p1011
aS' NA'
p1012
aS"     is a Portuguese professional footballer who plays as a forward for Italian club Juventus and the Portugal national team. Often considered the best player in the world and  regarded by many as one of the greatest players of all time,  has a record-tying five Ballon d'Or awards, the most for a European player, and is the first player to win four European Golden Shoes. He has won  trophies in his career, including five league titles, five UEFA Champions League titles and one UEFA European Championship. A prolific goalscorer,  holds the records for most official goals scored in Europe's top-five leagues , the UEFA Champions League , the UEFA European Championship , as well as those for most assists in the UEFA Champions League  and the UEFA European Championship . He has scored over  senior career goals for club and country.\n "
p1013
aS'   is an American actress, director, and producer. She has received two Academy Awards, three British Academy Film Awards, two Golden Globe Awards, a Screen Actors Guild Award and the Cecil B DeMille Award. For her work as a director,  has been nominated for two Directors Guild of America Awards and a Primetime Emmy Award.\n Actress, director, producer'
p1014
aS'   is an Italian actor, film director, screenwriter and film producer.\n Actor, film director, screenwriter, film producer'
p1015
aS'    is an American actor, writer, producer, comedian, magician, and singer. He is known primarily for his comedy roles on television and his dramatic and musical stage roles. On television, he is known for playing the title character on Doogie Howser, M.D. , Barney Stinson on How I Met Your Mother , and  Count Olaf in A Series of Unfortunate Events .\n Actor, writer, producer, comedian, magician, singer'
p1016
aS' Actor, producer'
p1017
aS'    is an Italian actress and model.  began her career as a fashion model, modeling for the likes of Dolce & Gabbana and Dior, before making a transition to Italian films and later Hollywood films. She is often considered among the most beautiful women in the world.\n Actress * fashion model'
p1018
aS'    is an American director, writer, and actor. His films are characterized by nonlinear storylines; satirical subject matter; an aestheticization of violence; extended scenes of dialogue; ensemble casts consisting of established and lesser-known performers; references to popular culture and a wide variety of other films; soundtracks primarily containing songs and score pieces from the s to the s; and features of neo-noir film.\n Director, writer, actor'
p1019
aS' NA'
p1020
aS' NA'
p1021
aS'   Commendatore OMRI  is a retired Italian gymnast.\n '
p1022
aS' NA'
p1023
aS' NA'
p1024
aS' NA'
p1025
aS'    is an American actress and producer. She became a Hollywood star after headlining the romantic comedy Pretty Woman , which grossed $ million worldwide. She has won three Golden Globe Awards  and has been nominated for four Academy Awards for her film acting, winning the Academy Award for Best Actress for her performance in Erin Brockovich .\n Actress, producer'
p1026
aS'   is a film actress, producer, and director with dual Israeli and American citizenship. She is the recipient of various accolades, including an Academy Award and two Golden Globe Awards.\n Actress, film producer, director'
p1027
aS"   is an American actress, filmmaker, and humanitarian. She has received an Academy Award, two Screen Actors Guild Awards, and three Golden Globe Awards, and has been cited as Hollywood's highest-paid actress.  made her screen debut as a child alongside her father, Jon , in Lookin' to Get Out . Her film career began in earnest a decade later with the low-budget production Cyborg  , followed by her first leading role in a major film, Hackers . She starred in the critically acclaimed biographical cable films George Wallace  and Gia , and won an Academy Award for Best Supporting Actress for her performance in the drama Girl, Interrupted .\n Actress, filmmaker, activist"
p1028
aS"   is an American actor and singer. His career has included critical and popular success in his youth, followed by a period of substance abuse and legal difficulties, and a resurgence of commercial success in middle age. For three consecutive years from  to ,  topped the Forbes list of Hollywood's highest-paid actors, making an estimated $ million in earnings between June  and June .\n Actor, singer-songwriter"
p1029
aS' NA'
p1030
aS' NA'
p1031
aS'   is an American actor, writer and film producer. He gained worldwide fame for his starring roles as Han Solo in the Star Wars film series and as the title character of the Indiana Jones film series. Five of his movies are within the  top-grossing movies of all time at the US box office .  is also known for playing Rick Deckard in the neo-noir dystopian science fiction film Blade Runner  and its sequel Blade Runner  ; John Book in the thriller Witness , for which he was nominated for the Academy Award for Best Actor; and Jack Ryan in the action films Patriot Games  and Clear and Present Danger .\n Actor, producer'
p1032
aS' NA'
p1033
aS' NA'
p1034
aS"  is an American reality television personality, entrepreneur and socialite.  first gained media attention as a friend and stylist of Paris Hilton, but received wider notice after a  sex tape with her former boyfriend Ray J was leaked in . Later that year, she and her family began to appear in the E! reality television series Keeping Up with the s. Its success soon led to the creation of spin-offs including Kourtney and  Take New York and Kourtney and Khloe Take Miami. 's personal life soon became subject to widespread media attention.\n Television personality, socialite, actress, businesswoman, model"
p1035
aS' NA'
p1036
aS"    is an American actress, producer, author, and fashion model. She has frequently appeared in comedies throughout her career, while also earning critical recognition in dramatic films. Her accolades include four Golden Globe Award nominations, three Screen Actors Guild Award nominations, and a  New York Film Critics Award. In , she was named the highest-paid actress over  in Hollywood. As of  , the U.S. domestic box office grosses of 's films total over $ billion USD, with worldwide grosses surpassing $ billion, making her the fifth highest-grossing U.S. domestic box office actress.\n Actress, producer, model, author"
p1037
aS'    is an American singer, songwriter, dancer, and actress. Born in McComb, Mississippi, and raised in Kentwood, Louisiana, she appeared in stage productions and television series, before signing with Jive Records in . \'s first two studio albums, ...Baby One More Time  and Oops!... I Did It Again , were global successes and made her the best-selling teenage artist of all-time. Referred to as the "Princess of Pop",  was credited with influencing the revival of teen pop during the late s and early s.\n Singer, dancer, actress'
p1038
aS' NA'
p1039
aS' ,   is an Italian singer, songwriter, and record producer. Celine Dion has said that "if God would have a singing voice, he must sound a lot like  ," and David Foster, a record producer, often describes \'s voice as the most beautiful in the world.\n '
p1040
aS' ,   is an English singer, songwriter, guitarist, record producer, and actor.  was born in Halifax, West Yorkshire, and raised in Framlingham, Suffolk. He attended the Academy of Contemporary Music in Guildford as an undergraduate from the age of  in . In early ,  independently released the extended play, No.  Collaborations Project.\n Singer, songwriter, record producer, guitarist, actor'
p1041
aS' NA'
p1042
aS"    is an American actress, producer, and former fashion model. After modelling in television commercials and print advertisements, she made her film debut as an extra in Woody Allen's comedy-drama Stardust Memories . Her first speaking part was in Wes Craven's horror film Deadly Blessing , and throughout the s,  went on to appear in films such as Irreconcilable Differences , King Solomon's Mines , Cold Steel , and Above the Law . She found mainstream prominence with her part in Paul Verhoeven's action film Total Recall .\n Actress, model, film producer"
p1043
aS"   is a Swiss professional tennis player who is currently ranked world No.  in men's singles tennis by the Association of Tennis Professionals .  has won  Grand Slam singles titles--the most in history for a male player--and has held the world No.  spot in the ATP rankings for a record total of  weeks, including a record  consecutive weeks. After turning professional in , he was continuously ranked in the top ten from October  to November . He re-entered the top ten following his victory at the  Australian Open.\n "
p1044
aS'    is an American professional tennis player. The Women\'s Tennis Association  ranked her world No.  in singles on eight separate occasions between  and . She reached the No.  ranking for the first time on July , . On her sixth occasion, she held the ranking for  consecutive weeks, tying the record set by Steffi Graf. In total, she has been No.  for  weeks, which ranks third in the "Open Era" among female players behind Graf and Martina Navratilova.\n '
p1045
atp1046
bag19
(g20
(I0
tp1047
g22
tp1048
Rp1049
(I1
(I1
I190
tp1050
g26
(S'f8'
p1051
I0
I1
tp1052
Rp1053
(I3
S'<'
p1054
NNNI-1
I-1
I0
tp1055
bI00
S'\x9fK\x84\xef\x80\x0b\xdb?\xe5\xf7\xa7\xe6\x910\xc8?\x1c\x07 \xa4\xc9\xf2\xd6?\x00\x00\x00\x00\x00\x00\x00\x00\x00\x00\x00\x00\x00\x00\x00\x00\xcf^\xd5\xda\x0c\x99\xce?\x00\x00\x00\x00\x00\x00\x00\x00\x1c\x07 \xa4\xc9\xf2\xd6?\x00\x00\x00\x00\x00\x00\x00\x00=6\x10X6\xa8\xd9?\x00\x00\x00\x00\x00\x00\x00\x00\x00\x00\x00\x00\x00\x00\x00\x00\x00\x00\x00\x00\x00\x00\x00\x00\x00\x00\x00\x00\x00\x00\x00\x00\x00\x00\x00\x00\x00\x00\x00\x00\x00\x00\x00\x00\x00\x00\x00\x00\x00\x00\x00\x00\x00\x00\x00\x00\x02\x0e\xe0P6\xc0\xd3?\x00\x00\x00\x00\x00\x00\x00\x00\x90{\xaf\x97\n\xa1\xd4?\x00\x00\x00\x00\x00\x00\xf8\x7f\x00\x00\x00\x00\x00\x00\xf8\x7f\x00\x00\x00\x00\x00\x00\xf8\x7f\x00\x00\x00\x00\x00\x00\xf8\x7f\x00\x00\x00\x00\x00\x00\xf8\x7f\x00\x00\x00\x00\x00\x00\xf8\x7f\x00\x00\x00\x00\x00\x00\xf8\x7f\x00\x00\x00\x00\x00\x00\xf8\x7f\x00\x00\x00\x00\x00\x00\xf8\x7f\x00\x00\x00\x00\x00\x00\xf8\x7f\x00\x00\x00\x00\x00\x00\xf8\x7f\x00\x00\x00\x00\x00\x00\xf8\x7f\x00\x00\x00\x00\x00\x00\xf8\x7f\x00\x00\x00\x00\x00\x00\xf8\x7f\x00\x00\x00\x00\x00\x00\xf8\x7f\x00\x00\x00\x00\x00\x00\xf8\x7f\x00\x00\x00\x00\x00\x00\xf8\x7f\x00\x00\x00\x00\x00\x00\xf8\x7f\x00\x00\x00\x00\x00\x00\xf8\x7f\x00\x00\x00\x00\x00\x00\xf8\x7f\x00\x00\x00\x00\x00\x00\xf8\x7f\x00\x00\x00\x00\x00\x00\xf8\x7f\x00\x00\x00\x00\x00\x00\xf8\x7f\x00\x00\x00\x00\x00\x00\xf8\x7f\x00\x00\x00\x00\x00\x00\xf8\x7f\x00\x00\x00\x00\x00\x00\xf8\x7f\x00\x00\x00\x00\x00\x00\xf8\x7f\x00\x00\x00\x00\x00\x00\xf8\x7f\x00\x00\x00\x00\x00\x00\xf8\x7f\x00\x00\x00\x00\x00\x00\xf8\x7f\x00\x00\x00\x00\x00\x00\xf8\x7f\x00\x00\x00\x00\x00\x00\xf8\x7f\x00\x00\x00\x00\x00\x00\xf8\x7f\x00\x00\x00\x00\x00\x00\xf8\x7f\x00\x00\x00\x00\x00\x00\xf8\x7f\x00\x00\x00\x00\x00\x00\xf8\x7f\x00\x00\x00\x00\x00\x00\xf8\x7f\x00\x00\x00\x00\x00\x00\xf8\x7f\x00\x00\x00\x00\x00\x00\xf8\x7f\x00\x00\x00\x00\x00\x00\xf8\x7f\x00\x00\x00\x00\x00\x00\xf8\x7f\x00\x00\x00\x00\x00\x00\xf8\x7f\x00\x00\x00\x00\x00\x00\xf8\x7f\x00\x00\x00\x00\x00\x00\xf8\x7f\x00\x00\x00\x00\x00\x00\xf8\x7f\x00\x00\x00\x00\x00\x00\xf8\x7f\x00\x00\x00\x00\x00\x00\xf8\x7f\x00\x00\x00\x00\x00\x00\xf8\x7f\x00\x00\x00\x00\x00\x00\xf8\x7f\x00\x00\x00\x00\x00\x00\xf8\x7f\x00\x00\x00\x00\x00\x00\xf8\x7f\x00\x00\x00\x00\x00\x00\xf8\x7f\x00\x00\x00\x00\x00\x00\xf8\x7f\x00\x00\x00\x00\x00\x00\xf8\x7f\x00\x00\x00\x00\x00\x00\x00\x00\x00\x00\x00\x00\x00\x00\x00\x00\x00\x00\x00\x00\x00\x00\x00\x00\x00\x00\x00\x00\x00\x00\x00\x00\x00\x00\x00\x00\x00\x00\x00\x00\x00\x00\x00\x00\x00\x00\x00\x00\x00\x00\x00\x00\x00\x00\x00\x00\x00\x00\x00\x00\x00\x00\x00\x00\x00\x00\x00\x00\x00\x00\x00\x00\xe5\xf7\xa7\xe6\x910\xc8?\x00\x00\x00\x00\x00\x00\x00\x00\x00\x00\x00\x00\x00\x00\x00\x00\x00\x00\x00\x00\x00\x00\x00\x00\x00\x00\x00\x00\x00\x00\x00\x00\x00\x00\x00\x00\x00\x00\x00\x00\x00\x00\x00\x00\x00\x00\x00\x00\x00\x00\x00\x00\x00\x00\x00\x00\x00\x00\x00\x00\x00\x00\x00\x00\x00\x00\x00\x00\x00\x00\x00\x00\x00\x00\x00\x00\x00\x00\x00\x00\x00\x00\x00\x00\x00\x00\x00\x00\x00\x00\x00\x00\x00\x00\x00\x00\x00\x00\x00\x00\x00\x00\x00\x00\x00\x00\x00\x00\x00\x00\x00\x00\x00\x00\x00\x00\x00\x00\x00\x00\x00\x00\x00\x00\x00\x00\x00\x00\xe5\xf7\xa7\xe6\x910\xc8?\x00\x00\x00\x00\x00\x00\x00\x00\x00\x00\x00\x00\x00\x00\x00\x00\x00\x00\x00\x00\x00\x00\x00\x00\x00\x00\x00\x00\x00\x00\x00\x00\x00\x00\x00\x00\x00\x00\x00\x00\x00\x00\x00\x00\x00\x00\x00\x00\x00\x00\x00\x00\x00\x00\x00\x00\x00\x00\x00\x00\x00\x00\x00\x00\x00\x00\x00\x00\x00\x00\x00\x00\x00\x00\x00\x00\x00\x00\x00\x00\x00\x00\x00\x00\x00\x00\x00\x00\x00\x00\x00\x00\x00\x00\x00\x00\x00\x00\x00\x00\x00\x00\x00\x00\x00\x00\x00\x00\x00\x00\x00\x00\x00\x00\x00\x00\x00\x00\x00\x00\x00\x00\x00\x00\x00\x00\x00\x00\x00\x00\x00\x00\x00\x00\x00\x00\x00\x00\x00\x00\x00\x00\x00\x00\xe5\xf7\xa7\xe6\x910\xc8?\x00\x00\x00\x00\x00\x00\x00\x00\x00\x00\x00\x00\x00\x00\x00\x00\x00\x00\x00\x00\x00\x00\x00\x00\x00\x00\x00\x00\x00\x00\x00\x00\x00\x00\x00\x00\x00\x00\x00\x00\x00\x00\x00\x00\x00\x00\x00\x00\x00\x00\x00\x00\x00\x00\x00\x00\x00\x00\x00\x00\x00\x00\x00\x00\x00\x00\x00\x00\x00\x00\x00\x00\x00\x00\x00\x00\x00\x00\x00\x00\x00\x00\x00\x00\x00\x00\x00\x00\x00\x00\x00\x00\x00\x00\xf8\x7f\x00\x00\x00\x00\x00\x00\xf8\x7f\x00\x00\x00\x00\x00\x00\xf8\x7f\x00\x00\x00\x00\x00\x00\xf8\x7f\x00\x00\x00\x00\x00\x00\xf8\x7f\x00\x00\x00\x00\x00\x00\xf8\x7f\x00\x00\x00\x00\x00\x00\xf8\x7f\x00\x00\x00\x00\x00\x00\xf8\x7f\x00\x00\x00\x00\x00\x00\xf8\x7f\x00\x00\x00\x00\x00\x00\xf8\x7f\x00\x00\x00\x00\x00\x00\xf8\x7f\x00\x00\x00\x00\x00\x00\xf8\x7f\x00\x00\x00\x00\x00\x00\xf8\x7f\x00\x00\x00\x00\x00\x00\xf8\x7f\x00\x00\x00\x00\x00\x00\xf8\x7f\x00\x00\x00\x00\x00\x00\xf8\x7f\x00\x00\x00\x00\x00\x00\xf8\x7f\x00\x00\x00\x00\x00\x00\xf8\x7f\x00\x00\x00\x00\x00\x00\xf8\x7f\x00\x00\x00\x00\x00\x00\xf8\x7f\x00\x00\x00\x00\x00\x00\xf8\x7f\x00\x00\x00\x00\x00\x00\xf8\x7f\x00\x00\x00\x00\x00\x00\xf8\x7f\x00\x00\x00\x00\x00\x00\xf8\x7f\x00\x00\x00\x00\x00\x00\xf8\x7f\x00\x00\x00\x00\x00\x00\xf8\x7f\x00\x00\x00\x00\x00\x00\xf8\x7f\x00\x00\x00\x00\x00\x00\xf8\x7f\x00\x00\x00\x00\x00\x00\xf8\x7f\x00\x00\x00\x00\x00\x00\xf8\x7f\x00\x00\x00\x00\x00\x00\xf8\x7f\x00\x00\x00\x00\x00\x00\xf8\x7f\x00\x00\x00\x00\x00\x00\xf8\x7f\x00\x00\x00\x00\x00\x00\xf8\x7f\x00\x00\x00\x00\x00\x00\xf8\x7f\x00\x00\x00\x00\x00\x00\xf8\x7f\x00\x00\x00\x00\x00\x00\xf8\x7f\x00\x00\x00\x00\x00\x00\xf8\x7f\x00\x00\x00\x00\x00\x00\xf8\x7f\x00\x00\x00\x00\x00\x00\xf8\x7f\x00\x00\x00\x00\x00\x00\xf8\x7f\x00\x00\x00\x00\x00\x00\xf8\x7f\x00\x00\x00\x00\x00\x00\xf8\x7f\x00\x00\x00\x00\x00\x00\xf8\x7f\x00\x00\x00\x00\x00\x00\xf8\x7f\x00\x00\x00\x00\x00\x00\xf8\x7f\x00\x00\x00\x00\x00\x00\xf8\x7f\x00\x00\x00\x00\x00\x00\xf8\x7f\x00\x00\x00\x00\x00\x00\xf8\x7f\x00\x00\x00\x00\x00\x00\xf8\x7f\x00\x00\x00\x00\x00\x00\xf8\x7f\x00\x00\x00\x00\x00\x00\xf8\x7f\x00\x00\x00\x00\x00\x00\xf8\x7f\x00\x00\x00\x00\x00\x00\xf8\x7f\x00\x00\x00\x00\x00\x00\xf8\x7f\x00\x00\x00\x00\x00\x00\xf8\x7f\x00\x00\x00\x00\x00\x00\xf8\x7f\x00\x00\x00\x00\x00\x00\xf8\x7f\x00\x00\x00\x00\x00\x00\xf8\x7f'
p1056
tp1057
ba(lp1058
g15
(g16
(dp1059
g18
g19
(g20
(I0
tp1060
g22
tp1061
Rp1062
(I1
(I3
tp1063
g29
I00
(lp1064
g33
ag34
ag35
atp1065
bsg46
Nstp1066
Rp1067
ag15
(g16
(dp1068
g18
g19
(g20
(I0
tp1069
g22
tp1070
Rp1071
(I1
(I2
tp1072
g29
I00
(lp1073
g36
ag37
atp1074
bsg46
Nstp1075
Rp1076
ag15
(g16
(dp1077
g18
g19
(g20
(I0
tp1078
g22
tp1079
Rp1080
(I1
(I6
tp1081
g29
I00
(lp1082
g38
ag39
ag40
ag41
ag42
ag43
atp1083
bsg46
Nstp1084
Rp1085
ag15
(g16
(dp1086
g18
g19
(g20
(I0
tp1087
g22
tp1088
Rp1089
(I1
(I1
tp1090
g29
I00
(lp1091
g44
atp1092
bsg46
Nstp1093
Rp1094
a(dp1095
S'0.14.1'
p1096
(dp1097
S'axes'
p1098
g14
sS'blocks'
p1099
(lp1100
(dp1101
S'mgr_locs'
p1102
c__builtin__
slice
p1103
(I0
I3
I1
tp1104
Rp1105
sS'values'
p1106
g67
sa(dp1107
g1102
g1103
(I3
I5
I1
tp1108
Rp1109
sg1106
g328
sa(dp1110
g1102
g1103
(I5
I11
I1
tp1111
Rp1112
sg1106
g339
sa(dp1113
g1102
g1103
(I11
I12
I1
tp1114
Rp1115
sg1106
g1049
sasstp1116
bsb.