(dp0
S'institutionalised'
p1
I111
sS'four'
p2
I49
sS'protest'
p3
I286
sS'controversial'
p4
I282
sS'woody'
p5
I1362
sS'whose'
p6
I384
sS'chinese'
p7
I85
sS'paris'
p8
I973
sS'edward'
p9
I841
sS'regional'
p10
I148
sS'jack'
p11
I1302
sS'shawshank'
p12
I945
sS'school'
p13
I977
sS'prize'
p14
I281
sS'ceased'
p15
I1003
sVmonologue
p16
I733
sVforce
p17
I643
sS'second'
p18
I234
sS'street'
p19
I891
sS'implemented'
p20
I73
sS'established'
p21
I638
sS'xvii'
p22
I394
sS'consisting'
p23
I1251
sS'disney'
p24
I763
sS'hero'
p25
I546
sS'lgbt'
p26
I930
sS'china'
p27
I89
sS'represented'
p28
I235
sS'substance'
p29
I1284
sS'daughter'
p30
I298
sVguide
p31
I1165
sS'mentor'
p32
I1163
sS'smoke'
p33
I506
sS'military'
p34
I20
sS'adopting'
p35
I1011
sS'golden'
p36
I496
sS'offs'
p37
I1319
sS'rosenberg'
p38
I1195
sS'brought'
p39
I158
sS'total'
p40
I1160
sS'sabha'
p41
I605
sS'would'
p42
I1342
sS'army'
p43
I230
sS'music'
p44
I693
sS'telegraph'
p45
I1018
sS'indiana'
p46
I1293
sS'relay'
p47
I710
sS'successful'
p48
I698
sS'oscar'
p49
I681
sVaward
p50
I498
sS'dogma'
p51
I626
sS'tying'
p52
I1207
sS'hold'
p53
I412
sS'must'
p54
I1343
sS'flora'
p55
I671
sS'pursue'
p56
I1113
sS'work'
p57
I790
sS'estate'
p58
I165
sS'cited'
p59
I1269
sS'india'
p60
I297
sS'ceremony'
p61
I960
sVhog
p62
I1104
sS'titular'
p63
I555
sS'feature'
p64
I522
sS'widespread'
p65
I826
sS'rise'
p66
I1072
sS'elizabeth'
p67
I991
sS'insecure'
p68
I738
sS'earlier'
p69
I379
sS'president'
p70
I5
sS'third'
p71
I749
sS'greek'
p72
I949
sS'green'
p73
I953
sS'democratic'
p74
I13
sS'wing'
p75
I377
sS'wind'
p76
I912
sS'office'
p77
I326
sS'mayor'
p78
I167
sS'personal'
p79
I1324
sS'writing'
p80
I636
sVproduction
p81
I596
sS'coffee'
p82
I970
sS'songwriter'
p83
I572
sS'band'
p84
I687
sS'silver'
p85
I751
sS'debut'
p86
I815
sS'victory'
p87
I233
sS'arrow'
p88
I1101
sS'went'
p89
I916
sS'signing'
p90
I1184
sS'diana'
p91
I1151
sS'series'
p92
I473
sS'hosted'
p93
I800
sS'saturday'
p94
I1092
sS'driving'
p95
I942
sS'collaborated'
p96
I966
sS'zaltzman'
p97
I805
sS'surprise'
p98
I1038
sS'foundation'
p99
I658
sS'grease'
p100
I1094
sS'turning'
p101
I1386
sS'associate'
p102
I226
sS'dracula'
p103
I853
sS'u.s.'
p104
I133
sS'free'
p105
I217
sS'commercially'
p106
I998
sS'certified'
p107
I864
sS'refugee'
p108
I270
sS'signature'
p109
I1180
sS'stewart'
p110
I762
sVrank
p111
I1395
sS'fantasy'
p112
I471
sS'philosophical'
p113
I580
sS'comic'
p114
I524
sS'rewritten'
p115
I1149
sS'revival'
p116
I922
sS'guinness'
p117
I1174
sS'fiction'
p118
I513
sS'hollywood'
p119
I388
sS'john'
p120
I469
sS'ranging'
p121
I1120
sS'esoteric'
p122
I579
sS'took'
p123
I325
sS'negotiating'
p124
I275
sS'guild'
p125
I571
sS'rampage'
p126
I493
sS'stateswoman'
p127
I292
sS'project'
p128
I1357
sS'matter'
p129
I1244
sS'solomon'
p130
I1373
sVmermaid
p131
I833
sS'iron'
p132
I414
sS'screenplay'
p133
I635
sS'fashion'
p134
I1234
sS'runner'
p135
I1300
sS'modern'
p136
I127
sVmine
p137
I1374
sS'enchanted'
p138
I1039
sS'emphasizing'
p139
I732
sS'estimated'
p140
I1290
sS'derek'
p141
I1024
sS'witney'
p142
I77
sS'cannes'
p143
I753
sS'kentwood'
p144
I1332
sS'anatomy'
p145
I480
sS'swiss'
p146
I319
sS'regular'
p147
I1111
sS'germany'
p148
I205
sS'jean'
p149
I181
sS'thriller'
p150
I647
sS'maria'
p151
I1048
sS'zealand'
p152
I660
sS'singer'
p153
I534
sVepisode
p154
I1161
sS'medical'
p155
I477
sS'bodybuilder'
p156
I357
sVenterprise
p157
I552
sS'entertaining'
p158
I657
sS'confederation'
p159
I327
sS'nominated'
p160
I1127
sS'ending'
p161
I1158
sS'radio'
p162
I806
sS'earth'
p163
I969
sS'enjoyed'
p164
I1096
sS'representing'
p165
I602
sVtheme
p166
I582
sS'rick'
p167
I1296
sS'instrumentalist'
p168
I683
sS'personality'
p169
I163
sS'lady'
p170
I415
sS'criticized'
p171
I1172
sS'despite'
p172
I301
sS'earn'
p173
I1115
sS'covering'
p174
I861
sS'howser'
p175
I1228
sS'secretary'
p176
I38
sS'disaster'
p177
I640
sVreference
p178
I1253
sS'decided'
p179
I1112
sS'armageddon'
p180
I641
sS'resigned'
p181
I193
sS'best'
p182
I554
sS'subject'
p183
I1243
sS'voyage'
p184
I616
sS'said'
p185
I1341
sS'transliteration'
p186
I135
sS'gentleman'
p187
I1063
sS'score'
p188
I1257
sS'olympics'
p189
I717
sS'crouse'
p190
I485
sS'nature'
p191
I644
sS'dedication'
p192
I1150
sS'modeling'
p193
I1235
sS'tyranny'
p194
I22
sS'received'
p195
I278
sS'country'
p196
I103
sS'internaitonal'
p197
I15
sS'lookin'
p198
I1270
sS'studio'
p199
I639
sVcontribution
p200
I659
sS'adapted'
p201
I521
sS'bram'
p202
I851
sS'bachman'
p203
I528
sS'appeared'
p204
I544
sS'height'
p205
I428
sS'cult'
p206
I829
sS'wider'
p207
I628
sS'aestheticization'
p208
I1245
sS'union'
p209
I209
sS'referendum'
p210
I27
sS'much'
p211
I907
sS'entered'
p212
I1388
sS'idol'
p213
I759
sS'stinson'
p214
I1230
sS'life'
p215
I745
sVworker
p216
I251
sS'filmmaker'
p217
I353
sS'child'
p218
I252
sS'worked'
p219
I1137
sS'spin'
p220
I1318
sS'presidency'
p221
I119
sS'professionally'
p222
I446
sS'lesser'
p223
I1252
sS'depp'
p224
I837
sS'suspense'
p225
I514
sS'voice'
p226
I910
sS'seven'
p227
I322
sS'played'
p228
I155
sS'player'
p229
I437
sS'containing'
p230
I1256
sS'ammar'
p231
I343
sS'debuted'
p232
I872
sS'unfortunate'
p233
I1233
sS'several'
p234
I727
sS'european'
p235
I213
sS'independent'
p236
I618
sS'published'
p237
I525
sS'shortly'
p238
I843
sS'lucas'
p239
I816
sS'charlie'
p240
I901
sS'maximo'
p241
I375
sS'contact'
p242
I784
sS'greatest'
p243
I722
sS'mother'
p244
I535
sS'alabama'
p245
I1037
sS'musical'
p246
I900
sS'left'
p247
I372
sS'gigolo'
p248
I1060
sS'facto'
p249
I212
sS'capitol'
p250
I1014
sS'empire'
p251
I1192
sS'sleepy'
p252
I882
sS'resigning'
p253
I285
sS'portrayed'
p254
I961
sS'previous'
p255
I364
sVtransformer
p256
I1043
sS'regarded'
p257
I545
sS'assassination'
p258
I309
sS'character'
p259
I761
sS'teenager'
p260
I820
sS'espoused'
p261
I151
sS'arab'
p262
I144
sS'rahman'
p263
I337
sS'birth'
p264
I997
sS'judge'
p265
I1015
sVshadow
p266
I892
sS'appearing'
p267
I584
sS'performing'
p268
I730
sS'alice'
p269
I904
sS'officer'
p270
I220
sS'negan'
p271
I488
sS'night'
p272
I968
sS'security'
p273
I263
sS'portuguese'
p274
I1202
sS'right'
p275
I207
sS'honored'
p276
I655
sS'korea'
p277
I250
sS'people'
p278
I88
sS'dead'
p279
I490
sS'born'
p280
I257
sS'stardust'
p281
I1364
sS'election'
p282
I1
sS'billboard'
p283
I868
sVpain
p284
I594
sS'omri'
p285
I1260
sS'humor'
p286
I728
sS'councilor'
p287
I175
sS'christmas'
p288
I880
sS'dolce'
p289
I1236
sS'protagonist'
p290
I556
sS'starring'
p291
I760
sS'post'
p292
I366
sS'stoker'
p293
I852
sS'bafta'
p294
I614
sS'palestinian'
p295
I344
sS'boldt'
p296
I612
sS'nixon'
p297
I266
sS'raised'
p298
I1331
sS'civic'
p299
I409
sS'civil'
p300
I349
sS'honeymoon'
p301
I466
sS'intellectual'
p302
I739
sS'entrepreneur'
p303
I1309
sS'dean'
p304
I178
sS'mcdreamy'
p305
I1025
sS'tennis'
p306
I436
sS'fininvestowner'
p307
I53
sS'jane'
p308
I673
sVcall
p309
I1169
sVwar
p310
I1292
sS'head'
p311
I19
sVmedium
p312
I46
sS'batman'
p313
I896
sS'becoming'
p314
I434
sS'landing'
p315
I986
sS'pierre'
p316
I368
sS'granger'
p317
I988
sS'unsuccessful'
p318
I999
sS'pelham'
p319
I1107
sS'liberal'
p320
I80
sS'acclaimed'
p321
I1278
sS'marxist'
p322
I62
sS'topped'
p323
I1289
sS'reality'
p324
I1308
sS'republic'
p325
I60
sS'holding'
p326
I222
sS'digital'
p327
I187
sS'dion'
p328
I1340
sS'pseudonym'
p329
I573
sS'scored'
p330
I1218
sVpicture
p331
I507
sS'welcome'
p332
I1089
sS'muse'
p333
I1131
sVoccasion
p334
I1391
sS'rolling'
p335
I926
sS'jones'
p336
I1045
sS'daily'
p337
I791
sVaccolade
p338
I567
sS'vietnam'
p339
I277
sS'time'
p340
I371
sS'animator'
p341
I877
sS'global'
p342
I24
sS'eldest'
p343
I367
sS'manager'
p344
I855
sS'milk'
p345
I512
sS'flaherty'
p346
I1201
sS'father'
p347
I87
sS'iraqi'
p348
I150
sS'pompeo'
p349
I1028
sS'hannah'
p350
I765
sS'choice'
p351
I410
sS'airing'
p352
I955
sS'minute'
p353
I924
sS'cool'
p354
I1103
sS'apartheid'
p355
I100
sS'superstardom'
p356
I1183
sS'team'
p357
I1206
sS'olympic'
p358
I712
sS'demille'
p359
I1222
sS'anaconda'
p360
I1116
sS'biopic'
p361
I511
sS'resurgence'
p362
I1097
sS'constitution'
p363
I16
sS'nationalized'
p364
I70
sS'celebrated'
p365
I908
sS'current'
p366
I159
sS'lennon'
p367
I696
sS'international'
p368
I1126
sS'supporting'
p369
I679
sS'french'
p370
I184
sS'based'
p371
I147
sS'teacher'
p372
I369
sS'redemption'
p373
I946
sS'canadian'
p374
I361
sS'blowin'
p375
I911
sS'commonly'
p376
I424
sS'teenage'
p377
I1336
sS'retired'
p378
I706
sS'extra'
p379
I1361
sS'russell'
p380
I492
sS'working'
p381
I1006
sS'syriana'
p382
I501
sS'france'
p383
I185
sS'live'
p384
I504
sS'wood'
p385
I881
sS'andy'
p386
I804
sVmemory
p387
I1365
sS'gabbana'
p388
I1237
sS'australian'
p389
I750
sVtrophy
p390
I1210
sS'club'
p391
I1065
sS'chocolate'
p392
I902
sS'communist'
p393
I57
sS'reelected'
p394
I118
sVvega
p395
I467
sS'growing'
p396
I593
sS'making'
p397
I311
sS'dmitry'
p398
I227
sS'heart'
p399
I463
sVperformer
p400
I1086
sS'figure'
p401
I294
sS'december'
p402
I140
sS'confused'
p403
I622
sVcritic
p404
I122
sS'dropped'
p405
I1012
sS'council'
p406
I321
sS'parliamentary'
p407
I243
sS'drama'
p408
I478
sS'fourth'
p409
I200
sS'grossed'
p410
I935
sS'dominance'
p411
I719
sS'springfield'
p412
I176
sS'economy'
p413
I186
sS'spielberg'
p414
I781
sS'sweeney'
p415
I886
sS'spot'
p416
I1384
sS'date'
p417
I295
sVnomination
p418
I607
sS'grandson'
p419
I255
sS'biographical'
p420
I1279
sS'tale'
p421
I840
sS'nebbish'
p422
I741
sS'syndicated'
p423
I931
sS'african'
p424
I98
sS'michel'
p425
I182
sS'serving'
p426
I30
sS'ended'
p427
I242
sS'frankenweenie'
p428
I893
sVlyric
p429
I1168
sS'birdy'
p430
I454
sS'cold'
p431
I429
sS'group'
p432
I692
sS'wallace'
p433
I1282
sS'willow'
p434
I1194
sS'yorkshire'
p435
I1349
sS'cheyenne'
p436
I551
sVpolicy
p437
I82
sS'troubled'
p438
I1084
sS'texas'
p439
I360
sS'sergio'
p440
I198
sS'thereby'
p441
I1053
sS'nation'
p442
I9
sS'husseini'
p443
I340
sVterm
p444
I224
sS'name'
p445
I376
sS'opera'
p446
I589
sS'january'
p447
I307
sS'establishing'
p448
I1118
sS'rock'
p449
I468
sS'vogue'
p450
I1123
sS'racial'
p451
I114
sS'comprising'
p452
I406
sS'owing'
p453
I718
sS'entering'
p454
I160
sVyear
p455
I245
sS'girl'
p456
I451
sS'canada'
p457
I362
sS'living'
p458
I1108
sS'factory'
p459
I903
sS'looking'
p460
I1056
sS'contained'
p461
I875
sS'goth'
p462
I819
sS'attended'
p463
I975
sS'fribourg'
p464
I333
sVtheory
p465
I93
sS'million'
p466
I518
sS'seventh'
p467
I1166
sS'quite'
p468
I743
sS'california'
p469
I134
sS'argo'
p470
I503
sS'mimi'
p471
I617
sS'barrister'
p472
I420
sS'transition'
p473
I1239
sS'british'
p474
I28
sS'janata'
p475
I598
sS'childhood'
p476
I630
sS'first'
p477
I39
sVemotion
p478
I1191
sVinitial
p479
I426
sS'rachel'
p480
I952
sS'potter'
p481
I558
sS'spanish'
p482
I435
sS'vote'
p483
I8
sS'open'
p484
I1389
sS'george'
p485
I1281
sS'engineer'
p486
I350
sS'city'
p487
I174
sS'little'
p488
I676
sS'district'
p489
I172
sS'carson'
p490
I1164
sS'influencing'
p491
I1338
sS'tragic'
p492
I1073
sS'goodbar'
p493
I1057
sS'geza'
p494
I611
sS'friend'
p495
I631
sS'slasher'
p496
I774
sS'eponymous'
p497
I1186
sS'mostly'
p498
I1032
sVseason
p499
I769
sS'braun'
p500
I857
sS'broadcast'
p501
I1159
sS'released'
p502
I863
sVcopy
p503
I519
sS'holder'
p504
I365
sS'boyfriend'
p505
I1313
sS'wide'
p506
I1254
sS'television'
p507
I162
sS'loverboy'
p508
I1031
sS'venture'
p509
I1001
sS'russia'
p510
I221
sS'surname'
p511
I302
sS'remained'
p512
I1110
sS'slam'
p513
I1381
sS'comedian'
p514
I481
sS'allen'
p515
I1363
sS'nazi'
p516
I272
sS'kevin'
p517
I623
sS'golaz'
p518
I331
sS'canton'
p519
I332
sS'take'
p520
I1321
sS'interior'
p521
I313
sS'performance'
p522
I678
sS'channel'
p523
I764
sS'multiple'
p524
I606
sS'norman'
p525
I1070
sS'theatre'
p526
I982
sS'opposite'
p527
I845
sS'paid'
p528
I650
sS'america'
p529
I1223
sS'michelle'
p530
I1200
sS'cuban'
p531
I56
sS'considered'
p532
I689
sS'later'
p533
I145
sS'federal'
p534
I23
sS'professional'
p535
I356
sS'senior'
p536
I793
sS'walking'
p537
I489
sS'show'
p538
I792
sS'german'
p539
I203
sS'contemporary'
p540
I1352
sS'fifty'
p541
I1142
sS'discovered'
p542
I858
sVshoe
p543
I1209
sS'fifth'
p544
I1328
sVtitle
p545
I1211
sS'state'
p546
I18
sS'liberation'
p547
I346
sS'going'
p548
I772
sS'black'
p549
I104
sS'congressional'
p550
I171
sVranking
p551
I1385
sS'beatles'
p552
I688
sS'grossing'
p553
I1295
sS'paolo'
p554
I195
sS'baghdad'
p555
I146
sS'hailed'
p556
I1128
sS'prime'
p557
I31
sS'artist'
p558
I866
sS'businesswoman'
p559
I561
sS'vision'
p560
I1190
sS'pushkar'
p561
I603
sS'elected'
p562
I40
sS'existence'
p563
I128
sVsport
p564
I390
sS'israeli'
p565
I1266
sS'tackling'
p566
I110
sS'managing'
p567
I432
sS'harvey'
p568
I491
sS'behind'
p569
I1396
sS'notice'
p570
I770
sS'screen'
p571
I570
sS'clouseau'
p572
I963
sS'recall'
p573
I1380
sS'many'
p574
I520
sS'contract'
p575
I653
sS'senator'
p576
I4
sS'among'
p577
I1085
sS'color'
p578
I1109
sS'period'
p579
I798
sS'anti'
p580
I99
sS'runaway'
p581
I1068
sS'west'
p582
I318
sS'formed'
p583
I702
sS'dramatic'
p584
I1226
sS'minister'
p585
I3
sS'former'
p586
I173
sS'pilot'
p587
I1088
sS'sound'
p588
I1344
sS'consultant'
p589
I262
sS'prominence'
p590
I985
sS'cast'
p591
I1080
sVconstituency
p592
I237
sS'marcel'
p593
I329
sS'middle'
p594
I1288
sS'fame'
p595
I542
sS'beetlejuice'
p596
I822
sS'different'
p597
I744
sS'mccomb'
p598
I1329
sS'author'
p599
I355
sS'damon'
p600
I633
sS'week'
p601
I797
sS'extended'
p602
I1247
sVassist
p603
I1220
sS'driver'
p604
I1047
sS'director'
p605
I422
sS'barber'
p606
I889
sVadvertisement
p607
I1360
sS'katheryn'
p608
I990
sS'constitutional'
p609
I191
sS'wellington'
p610
I662
sS'model'
p611
I972
sS'gentiloni'
p612
I196
sS'style='
p613
I1020
sS'kill'
p614
I778
sS'actor'
p615
I352
sVhacker
p616
I1276
sS'socialite'
p617
I562
sS'death'
p618
I92
sS'invictus'
p619
I947
sS'scissorhands'
p620
I842
sS'rose'
p621
I984
sS'jong'
p622
I253
sS'real'
p623
I164
sS'around'
p624
I530
sS'dark'
p625
I838
sS'earnest'
p626
I1271
sS'chainsaw'
p627
I775
sS'deetz'
p628
I818
sS'world'
p629
I216
sS'recipient'
p630
I494
sS'ruled'
p631
I90
sS'chamber'
p632
I334
sS'fully'
p633
I105
sS'served'
p634
I36
sS'competition'
p635
I721
sS'mattarella'
p636
I199
sS'stagecoach'
p637
I981
sVgross
p638
I1327
sS'prolific'
p639
I1214
sS'legal'
p640
I1286
sS'conservative'
p641
I34
sVpioneer
p642
I1193
sS'critical'
p643
I824
sS'mcclane'
p644
I548
sS'moderate'
p645
I1071
sS'refer'
p646
I124
sS'unsuccessfully'
p647
I288
sS'assembly'
p648
I601
sS'business'
p649
I69
sS'sixth'
p650
I1392
sS'iconic'
p651
I813
sS'notably'
p652
I810
sS'broken'
p653
I1100
sS'leadership'
p654
I418
sS'francis'
p655
I848
sS'stone'
p656
I927
sS'central'
p657
I293
sS'island'
p658
I1013
sS'industry'
p659
I68
sS'violence'
p660
I1246
sS'jarmusch'
p661
I967
sS'quentin'
p662
I1129
sS'gary'
p663
I846
sS'burton'
p664
I821
sS'portrayal'
p665
I547
sS'racism'
p666
I112
sS'barzani'
p667
I575
sS'valley'
p668
I450
sS'billion'
p669
I936
sS'tycoon'
p670
I47
sS'laine'
p671
I704
sS'garnered'
p672
I823
sS'podcast'
p673
I802
sS'khloe'
p674
I1322
sS'campion'
p675
I674
sS'bharatiya'
p676
I597
sS'october'
p677
I310
sS'romantic'
p678
I642
sS'rowling'
p679
I559
sS'louisiana'
p680
I1333
sS'powerlifter'
p681
I358
sS'jamaican'
p682
I705
sS'pulp'
p683
I1098
sS'leaked'
p684
I1314
sS'citizenship'
p685
I1267
sS'johnny'
p686
I836
sS'moved'
p687
I538
sS'britain'
p688
I232
sS'governed'
p689
I59
sS'politics'
p690
I0
sS'film'
p691
I440
sVhit
p692
I1143
sS'husayn'
p693
I136
sVheather
p694
I830
sS'championship'
p695
I1213
sS'congress'
p696
I7
sS'separate'
p697
I1390
sS'symbol'
p698
I1061
sS'massachusetts'
p699
I170
sS'included'
p700
I1055
sS'guildford'
p701
I1353
sS'wife'
p702
I487
sS'original'
p703
I634
sS'founder'
p704
I51
sS'dollar'
p705
I940
sS'founded'
p706
I398
sS'jawaharlal'
p707
I299
sS'welfare'
p708
I14
sS'religious'
p709
I581
sS'sung'
p710
I256
sS'reluctant'
p711
I909
sS'hunting'
p712
I637
sS'gymnast'
p713
I1261
sS'foster'
p714
I1346
sS'painter'
p715
I576
sS'woman'
p716
I215
sVsong
p717
I577
sS'horror'
p718
I472
sS'focus'
p719
I670
sS'frederic'
p720
I183
sVnovel
p721
I526
sVfan
p722
I920
sS'fall'
p723
I1074
sVdifference
p724
I1371
sS'heaven'
p725
I1059
sS'cable'
p726
I1280
sS'celebrity'
p727
I938
sS'list'
p728
I747
sS'harry'
p729
I557
sS'economically'
p730
I79
sS'arizona'
p731
I458
sS'lawyer'
p732
I76
sS'hairspray'
p733
I1105
sS'nonlinear'
p734
I1241
sS'richard'
p735
I265
sS'tribute'
p736
I1147
sS'racing'
p737
I452
sS'movement'
p738
I397
sS'full'
p739
I869
sS'christian'
p740
I208
sS'november'
p741
I427
sS'iraq'
p742
I141
sVtragedy
p743
I1082
sS'goalscorer'
p744
I1215
sS'experience'
p745
I677
sS'prior'
p746
I132
sS'social'
p747
I320
sVaction
p748
I274
sS'followed'
p749
I1274
sS'family'
p750
I273
sS'taupin'
p751
I1140
sS'africa'
p752
I102
sS'trained'
p753
I978
sS'abdel'
p754
I336
sS'actress'
p755
I560
sS'florence'
p756
I202
sS'nehru'
p757
I300
sS'oxfordshire'
p758
I974
sS'pearl'
p759
I645
sS'jive'
p760
I1334
sS'minor'
p761
I756
sS'teen'
p762
I758
sS'company'
p763
I421
sS'dior'
p764
I1238
sS'particular'
p765
I385
sS'known'
p766
I83
sS'producing'
p767
I502
sS'keeping'
p768
I1315
sS'strain'
p769
I386
sS'science'
p770
I515
sVcoalition
p771
I378
sS'nine'
p772
I1146
sS'hermione'
p773
I987
sS'dazed'
p774
I621
sS'male'
p775
I1382
sS'history'
p776
I126
sS'beautiful'
p777
I959
sS'ford'
p778
I268
sS'celine'
p779
I1339
sS'steffi'
p780
I1393
sVgoal
p781
I1217
sS'rather'
p782
I734
sS'american'
p783
I169
sS'amistad'
p784
I783
sS'occasionally'
p785
I1156
sS'earnings'
p786
I1291
sS'ensemble'
p787
I1250
sS'controversially'
p788
I915
sS'daisy'
p789
I944
sVsoundtrack
p790
I1255
sS'adventure'
p791
I895
sS'coming'
p792
I619
sS'short'
p793
I531
sS'register'
p794
I1182
sS'dragon'
p795
I976
sS'broadcasting'
p796
I654
sS'playing'
p797
I755
sS'developed'
p798
I736
sS'maidenhead'
p799
I42
sS'soon'
p800
I1316
sS'trade'
p801
I389
sS'held'
p802
I1383
sS'scientist'
p803
I259
sS'committee'
p804
I284
sS'broadway'
p805
I539
sS'developer'
p806
I166
sS'member'
p807
I41
sS'style'
p808
I419
sS'environmentalist'
p809
I583
sS'gerald'
p810
I267
sS'late'
p811
I404
sS'good'
p812
I486
sS'return'
p813
I289
sS'food'
p814
I565
sS'socially'
p815
I81
sS'geopolitical'
p816
I261
sS'party'
p817
I10
sS'oxford'
p818
I979
sS'association'
p819
I439
sS'mystery'
p820
I508
sS'governament'
p821
I21
sS'featured'
p822
I1017
sS'denny'
p823
I475
sS'found'
p824
I1376
sS'fairy'
p825
I839
sS'characterized'
p826
I1240
sS'referred'
p827
I425
sS'generation'
p828
I777
sS'house'
p829
I180
sS'fish'
p830
I757
sS'hard'
p831
I549
sS'idea'
p832
I12
sS'persona'
p833
I737
sS'irreconcilable'
p834
I1370
sS'todd'
p835
I887
sVoperation
p836
I1004
sVevent
p837
I715
sS'aldrin'
p838
I1199
sS'since'
p839
I35
sS'oberstein'
p840
I537
sS'acting'
p841
I500
sS'hill'
p842
I996
sS'print'
p843
I1359
sS'bass'
p844
I685
sVcircumstance
p845
I283
sVdifficulty
p846
I1287
sS'beginning'
p847
I1157
sS'revolutionary'
p848
I58
sS'ceasefire'
p849
I276
sS'sitcom'
p850
I592
sVliaison
p851
I1125
sS'twenty'
p852
I244
sS'major'
p853
I1275
sS'thereafter'
p854
I844
sS'number'
p855
I873
sS'valentine'
p856
I1041
sS'enlarged'
p857
I928
sS'miss'
p858
I943
sVstory
p859
I532
sS'guest'
p860
I795
sVscript
p861
I725
sS'leading'
p862
I143
sS'jamin'
p863
I610
sS'selling'
p864
I1052
sS'satirical'
p865
I801
sS'peaked'
p866
I1187
sS'king'
p867
I1372
sS'critically'
p868
I1277
sS'grey'
p869
I479
sS'vocal'
p870
I1177
sS'recording'
p871
I923
sS'bride'
p872
I885
sS'dismantling'
p873
I108
sS'alongside'
p874
I835
sS'vidhan'
p875
I604
sS'speaking'
p876
I1366
sS'majority'
p877
I430
sS'labour'
p878
I393
sS'chairman'
p879
I84
sS'pianist'
p880
I1136
sS'province'
p881
I201
sS'aired'
p882
I768
sS'electric'
p883
I917
sS'reach'
p884
I1189
sS'chart'
p885
I867
sS'reunited'
p886
I1132
sVcigarette
p887
I971
sS'plan'
p888
I608
sS'screenwriter'
p889
I442
sS'achievement'
p890
I505
sS'appear'
p891
I773
sS'branching'
p892
I918
sS'clear'
p893
I1305
sS'humanitarian'
p894
I1268
sVcover
p895
I1122
sS'traditional'
p896
I735
sS'part'
p897
I1079
sVstoryline
p898
I1242
sS'particularly'
p899
I1081
sVrelation
p900
I433
sS'defender'
p901
I934
sS'northern'
p902
I315
sS'duncan'
p903
I811
sS'scooter'
p904
I856
sS'writer'
p905
I231
sS'failed'
p906
I290
sS'pretty'
p907
I1066
sS'shepherd'
p908
I1026
sS'dominant'
p909
I120
sS'luke'
p910
I1009
sS'secular'
p911
I1002
sS'whistle'
p912
I1181
sS'longest'
p913
I125
sS'common'
p914
I305
sS'gospel'
p915
I995
sS'river'
p916
I510
sS'wrote'
p917
I957
sVart
p918
I983
sS'achieved'
p919
I541
sS'intelligence'
p920
I219
sS'monza'
p921
I55
sS'culture'
p922
I906
sS'close'
p923
I225
sS'declined'
p924
I1095
sS'youth'
p925
I665
sVmovie
p926
I1121
sS'currently'
p927
I177
sS'songbird'
p928
I1173
sS'various'
p929
I566
sS'consecutive'
p930
I1144
sS'corruption'
p931
I25
sS'europe'
p932
I1219
sS'solo'
p933
I701
sS'latin'
p934
I1050
sS'historical'
p935
I782
sS'sold'
p936
I517
sS'attention'
p937
I789
sS'philanthropist'
p938
I101
sS'ranked'
p939
I746
sS'franchise'
p940
I550
sS'legislature'
p941
I395
sS'league'
p942
I316
sS'influential'
p943
I691
sS'annual'
p944
I652
sS'foreign'
p945
I194
sS'became'
p946
I67
sS'sweet'
p947
I1036
sS'acted'
p948
I809
sS'community'
p949
I812
sS'hollow'
p950
I883
sS'acclaim'
p951
I825
sS'scottish'
p952
I1022
sS'throughout'
p953
I74
sS'platinum'
p954
I865
sS'primetime'
p955
I568
sS'described'
p956
I211
sS'publishing'
p957
I726
sS'political'
p958
I95
sVstrategy
p959
I94
sS'beppe'
p960
I399
sS'describes'
p961
I1347
sS'dialogue'
p962
I1249
sS'grillo'
p963
I400
sS'fire'
p964
I464
sS'cyborg'
p965
I1273
sS'modelling'
p966
I1358
sS'representative'
p967
I106
sS'fretful'
p968
I740
sS'raouf'
p969
I338
sS'politician'
p970
I29
sS'coppola'
p971
I445
sS'socialist'
p972
I71
sS'bill'
p973
I1134
sS'budget'
p974
I1272
sS'governor'
p975
I359
sS'socialism'
p976
I154
sS'fleet'
p977
I890
sS'deckard'
p978
I1297
sS'uncompromising'
p979
I417
sS'kingdom'
p980
I33
sS'portugal'
p981
I1205
sS'century'
p982
I411
sS'mystic'
p983
I509
sS'imperialist'
p984
I240
sS'demon'
p985
I888
sS'triple'
p986
I874
sS'barney'
p987
I1229
sS'italy'
p988
I48
sS'reign'
p989
I711
sS'widely'
p990
I210
sS'grand'
p991
I405
sS'development'
p992
I392
sS'moving'
p993
I663
sS'nickname'
p994
I416
sS'early'
p995
I447
sS'dystopian'
p996
I1298
sS'craven'
p997
I1367
sS'juventus'
p998
I1204
sS'landmark'
p999
I832
sS'organization'
p1000
I149
sS'coup'
p1001
I157
sS'suffolk'
p1002
I1351
sS'love'
p1003
I1030
sS'also'
p1004
I65
sS'sprinter'
p1005
I707
sS'danger'
p1006
I1307
sS'march'
p1007
I308
sVgame
p1008
I713
sS'flypaper'
p1009
I1042
sS'stylist'
p1010
I1310
sS'popular'
p1011
I690
sS'often'
p1012
I123
sS'senate'
p1013
I317
sS'creation'
p1014
I1317
sVplay
p1015
I989
sS'delegation'
p1016
I179
sS'economic'
p1017
I239
sS'sight'
p1018
I1117
sS'wonderland'
p1019
I905
sS'candle'
p1020
I1148
sS'sprint'
p1021
I720
sS'decision'
p1022
I2
sS'commentator'
p1023
I391
sS'framlingham'
p1024
I1350
sS'nyon'
p1025
I403
sS'santa'
p1026
I590
sS'pilet'
p1027
I330
sS'rbmg'
p1028
I862
sS'range'
p1029
I1178
sS'gujarat'
p1030
I306
sS'melismatic'
p1031
I1179
sS'grammy'
p1032
I1049
sS'within'
p1033
I1294
sS'edtv'
p1034
I785
sS'changin'
p1035
I913
sS'primarily'
p1036
I1225
sS'steven'
p1037
I780
sS'next'
p1038
I586
sVspan
p1039
I716
sS'forward'
p1040
I1203
sS'narrator'
p1041
I939
sS'jewish'
p1042
I269
sS'atop'
p1043
I1188
sS'appian'
p1044
I595
sS'lydia'
p1045
I817
sS'scope'
p1046
I929
sS'russian'
p1047
I218
sS'line'
p1048
I1021
sS'role'
p1049
I156
sS'raising'
p1050
I457
sS'directed'
p1051
I958
sS'patriot'
p1052
I1304
sS'rejection'
p1053
I190
sS'planet'
p1054
I898
sS'continuously'
p1055
I1387
sS'sometimes'
p1056
I373
sS'associated'
p1057
I78
sS'nationalist'
p1058
I64
sS'surpassing'
p1059
I1162
sVsingle
p1060
I438
sS'kotter'
p1061
I1091
sS'nationalism'
p1062
I153
sS'novelist'
p1063
I1016
sS'cotton'
p1064
I1064
sS'peace'
p1065
I280
sS'ellen'
p1066
I1027
sS'department'
p1067
I324
sS'resign'
p1068
I129
sS'independently'
p1069
I1355
sS'statesman'
p1070
I229
sS'vice'
p1071
I131
sS'youtube'
p1072
I859
sS'came'
p1073
I788
sS'athism'
p1074
I152
sS'portraying'
p1075
I951
sS'jason'
p1076
I484
sS'moon'
p1077
I453
sS'theorist'
p1078
I382
sS'include'
p1079
I613
sS'fatah'
p1080
I348
sS'mainstream'
p1081
I1377
sS'wave'
p1082
I443
sS'continued'
p1083
I828
sS'magid'
p1084
I137
sS'olaf'
p1085
I1232
sS'harbor'
p1086
I646
sS'ryan'
p1087
I1303
sS'race'
p1088
I1046
sS'dealt'
p1089
I431
sS'barbara'
p1090
I591
sS'noted'
p1091
I1175
sS'bernie'
p1092
I1139
sS'smaller'
p1093
I1033
sVvideo
p1094
I860
sS'folk'
p1095
I921
sS'reconciliation'
p1096
I115
sS'power'
p1097
I26
sS'chicago'
p1098
I1078
sVanthem
p1099
I914
sS'vampire'
p1100
I460
sS'indian'
p1101
I291
sVbird
p1102
I465
sVcommercial
p1103
I585
sS'youngest'
p1104
I328
sS'peggy'
p1105
I455
sS'focused'
p1106
I107
sS'octave'
p1107
I1176
sS'talent'
p1108
I854
sS'larger'
p1109
I779
sVmetre
p1110
I709
sS'host'
p1111
I786
sS'leaving'
p1112
I669
sS'survey'
p1113
I748
sS'honor'
p1114
I1040
sS'composed'
p1115
I1154
sS'named'
p1116
I1054
sS'clark'
p1117
I363
sS'deputy'
p1118
I312
sS'moonlighting'
p1119
I543
sS'composer'
p1120
I402
sS'singing'
p1121
I993
sVape
p1122
I899
sS'refers'
p1123
I374
sS'remains'
p1124
I697
sS'hudson'
p1125
I992
sS'nobel'
p1126
I279
sS'commendatore'
p1127
I1259
sS'parliament'
p1128
I6
sS'formally'
p1129
I192
sS'started'
p1130
I787
sS'musician'
p1131
I401
sS'kunya'
p1132
I342
sS'baby'
p1133
I876
sS'appointed'
p1134
I197
sS'performed'
p1135
I1119
sS'tarantino'
p1136
I1130
sS'hilton'
p1137
I1311
sS'sought'
p1138
I287
sS'founding'
p1139
I86
sS'slayer'
p1140
I1197
sS'educational'
p1141
I615
sS'united'
p1142
I32
sS'guru'
p1143
I564
sS'class='
p1144
I1019
sS'animal'
p1145
I807
sS'comedy'
p1146
I620
sS'establishment'
p1147
I91
sS'stand'
p1148
I731
sS'pink'
p1149
I964
sVcollection
p1150
I533
sS'abuse'
p1151
I1285
sS'chasing'
p1152
I625
sS'interrupted'
p1153
I1283
sS'martina'
p1154
I1397
sS'nancy'
p1155
I950
sS'subsequently'
p1156
I1005
sS'producer'
p1157
I441
sS'produced'
p1158
I1155
sS'including'
p1159
I527
sS'austrian'
p1160
I351
sS'mcgrath'
p1161
I672
sS'glen'
p1162
I1007
sS'bridget'
p1163
I1044
sS'winning'
p1164
I1077
sS'blessing'
p1165
I1369
sS'songwriting'
p1166
I694
sS'popularly'
p1167
I341
sS'swordfish'
p1168
I1102
sS'kiss'
p1169
I461
sS'investor'
p1170
I354
sS'fled'
p1171
I271
sS'presidential'
p1172
I223
sS'february'
p1173
I189
sS'ideologically'
p1174
I43
sS'university'
p1175
I668
sS'billy'
p1176
I767
sS'identifies'
p1177
I44
sS'globe'
p1178
I497
sS'related'
p1179
I303
sS'society'
p1180
I75
sS'filmmaking'
p1181
I444
sS'special'
p1182
I656
sS'suphan'
p1183
I574
sS'matt'
p1184
I632
sS'entertainment'
p1185
I609
sS'activist'
p1186
I117
sS'maintains'
p1187
I742
sS'york'
p1188
I808
sS'advisor'
p1189
I264
sS'princess'
p1190
I1152
sS'dubbed'
p1191
I413
sS'david'
p1192
I1345
sS'length'
p1193
I870
sS'south'
p1194
I97
sS'yong'
p1195
I254
sS'powerful'
p1196
I214
sVscene
p1197
I1248
sS'owner'
p1198
I52
sS'reached'
p1199
I1145
sS'legislative'
p1200
I600
sS'festival'
p1201
I754
sS'bologna'
p1202
I168
sS'palestine'
p1203
I345
sS'back'
p1204
I1090
sS'academy'
p1205
I499
sS'completed'
p1206
I666
sS'shorty'
p1207
I1099
sS'july'
p1208
I142
sS'institution'
p1209
I17
sS'steel'
p1210
I1375
sS'collectively'
p1211
I96
sS's.s.'
p1212
I54
sS'ballard'
p1213
I1008
sS'businessperson'
p1214
I948
sS'idar'
p1215
I536
sS'partnership'
p1216
I695
sS'manitoba'
p1217
I661
sVblockbuster
p1218
I894
sS'cecil'
p1219
I1221
sS'leninist'
p1220
I63
sS'pursued'
p1221
I700
sS'alienating'
p1222
I919
sS'linda'
p1223
I703
sS'korean'
p1224
I248
sS'lily'
p1225
I1198
sS'soap'
p1226
I588
sS'worldwide'
p1227
I684
sS'centre'
p1228
I206
sVcollaboration
p1229
I1356
sS'montana'
p1230
I766
sS'eight'
p1231
I796
sS'satire'
p1232
I831
sS'doogie'
p1233
I1227
sS'oldman'
p1234
I847
sS'talk'
p1235
I932
sS'businessman'
p1236
I161
sS'uefa'
p1237
I1212
sVaffair
p1238
I188
sS'medvedev'
p1239
I228
sS'disbanded'
p1240
I699
sVfear
p1241
I648
sVdecade
p1242
I723
sS'noir'
p1243
I1258
sS'earned'
p1244
I954
sS'miniseries'
p1245
I523
sS'winner'
p1246
I680
sS'credited'
p1247
I1337
sS'tape'
p1248
I1312
sS'piano'
p1249
I675
sS'regularly'
p1250
I1171
sS'cuba'
p1251
I61
sS'massacre'
p1252
I776
sS'bear'
p1253
I752
sS'drawn'
p1254
I1083
sS'following'
p1255
I1000
sS'married'
p1256
I456
sS'mohammed'
p1257
I335
sS'fixer'
p1258
I1075
sS'contain'
p1259
I578
sS'graf'
p1260
I1394
sS'duquette'
p1261
I476
sS'national'
p1262
I116
sS'legacy'
p1263
I109
sS'provocatore'
p1264
I1170
sS'superhero'
p1265
I482
sVreform
p1266
I72
sS'nightmare'
p1267
I879
sS'written'
p1268
I529
sS'supernatural'
p1269
I474
sS'selena'
p1270
I1114
sS'career'
p1271
I238
sVjoke
p1272
I724
sS'taking'
p1273
I1106
sS'april'
p1274
I139
sVwale
p1275
I1153
sS'fostering'
p1276
I113
sS'lyricist'
p1277
I1138
sS'walk'
p1278
I1051
sS'undergraduate'
p1279
I1354
sS'earning'
p1280
I834
sS'addition'
p1281
I799
sS'recurring'
p1282
I587
sS'releasing'
p1283
I1185
sS'present'
p1284
I1306
sS'multi'
p1285
I682
sS'main'
p1286
I1133
sVappearance
p1287
I827
sS'blasco'
p1288
I1167
sS'wild'
p1289
I462
sS'gothic'
p1290
I849
sS'dual'
p1291
I1265
sS'partner'
p1292
I1141
sS'inspector'
p1293
I962
sS'brockovich'
p1294
I1264
sS'began'
p1295
I241
sS'administration'
p1296
I66
sS'romance'
p1297
I850
sS'mahatma'
p1298
I304
sS'outbreak'
p1299
I1034
sS'navratilova'
p1300
I1398
sS'columbia'
p1301
I667
sS'eccentric'
p1302
I878
sS'frequently'
p1303
I1325
sS'magician'
p1304
I1224
sS'correspondent'
p1305
I794
sS'well'
p1306
I1062
sS'fever'
p1307
I1093
sS'thought'
p1308
I387
sS'oops'
p1309
I1335
sS'english'
p1310
I553
sS'position'
p1311
I121
sS'soviet'
p1312
I383
sS'executive'
p1313
I323
sS'domestic'
p1314
I1326
sS'paul'
p1315
I1378
sS'winchester'
p1316
I470
sS'panther'
p1317
I965
sS'smith'
p1318
I624
sVday
p1319
I1058
sS'forbes'
p1320
I937
sS'nato'
p1321
I381
sS'footballer'
p1322
I933
sS'smart'
p1323
I941
sVgovernment
p1324
I50
sS'chancellor'
p1325
I204
sS'headlining'
p1326
I1262
sS'five'
p1327
I236
sS'rajasthan'
p1328
I599
sS'prominent'
p1329
I246
sS'like'
p1330
I925
sS'success'
p1331
I1029
sS'miami'
p1332
I1323
sS'dancer'
p1333
I1087
sS'journalist'
p1334
I370
sS'martin'
p1335
I1010
sS'become'
p1336
I380
sS'starred'
p1337
I448
sS'emmy'
p1338
I569
sS'italian'
p1339
I45
sS'arbitrage'
p1340
I1069
sS'ballon'
p1341
I1208
sS'church'
p1342
I994
sS'authority'
p1343
I347
sS'home'
p1344
I37
sS'halifax'
p1345
I1348
sS'blade'
p1346
I1299
sS'recognition'
p1347
I629
sS'lead'
p1348
I1035
sS'corpse'
p1349
I884
sS'breakout'
p1350
I771
sS'leader'
p1351
I11
sS'neurosurgeon'
p1352
I1023
sS'stage'
p1353
I540
sS'gained'
p1354
I627
sS'lifestyle'
p1355
I563
sS'freedom'
p1356
I407
sS'recognized'
p1357
I956
sS'kourtney'
p1358
I1320
sS'angeles'
p1359
I664
sS'qudwa'
p1360
I339
sS'centrist'
p1361
I408
sS'bugle'
p1362
I803
sS'previously'
p1363
I130
sS'primal'
p1364
I1067
sS'three'
p1365
I495
sS'female'
p1366
I296
sS'mississippi'
p1367
I1330
sS'additional'
p1368
I1135
sVwatchman
p1369
I483
sS'flynn'
p1370
I1076
sS'north'
p1371
I247
sS'moonstruck'
p1372
I459
sS'sequel'
p1373
I897
sS'highest'
p1374
I649
sS'count'
p1375
I1231
sS'made'
p1376
I814
sS'verhoeven'
p1377
I1379
sS'dangerous'
p1378
I1124
sS'official'
p1379
I1216
sS'signed'
p1380
I651
sS'record'
p1381
I708
sVpiece
p1382
I729
sS'supreme'
p1383
I249
sS'buffy'
p1384
I1196
sS'erin'
p1385
I1263
sS'champion'
p1386
I714
sS'diplomat'
p1387
I260
sS'variety'
p1388
I449
sS'deadly'
p1389
I1368
sS'guitarist'
p1390
I686
sS'illinois'
p1391
I258
sVbook
p1392
I516
sS'witness'
p1393
I1301
sS'branch'
p1394
I980
sS'tikriti'
p1395
I138
sS'chemist'
p1396
I423
sS'album'
p1397
I871
sS'star'
p1398
I396
sS'june'
p1399
I314
s.