ccopy_reg
_reconstructor
p0
(cpandas.core.frame
DataFrame
p1
c__builtin__
object
p2
Ntp3
Rp4
(dp5
S'_metadata'
p6
(lp7
sS'_typ'
p8
S'dataframe'
p9
sS'_data'
p10
g0
(cpandas.core.internals
BlockManager
p11
g2
Ntp12
Rp13
((lp14
cpandas.core.indexes.base
_new_Index
p15
(cpandas.core.indexes.base
Index
p16
(dp17
S'data'
p18
cnumpy.core.multiarray
_reconstruct
p19
(cnumpy
ndarray
p20
(I0
tp21
S'b'
p22
tp23
Rp24
(I1
(I10
tp25
cnumpy
dtype
p26
(S'O8'
p27
I0
I1
tp28
Rp29
(I3
S'|'
p30
NNNI-1
I-1
I63
tp31
bI00
(lp32
S'bday'
p33
aS'bio'
p34
aS'country'
p35
aS'isFam'
p36
aS'isPol'
p37
aS'midname'
p38
aS'money'
p39
aS'name'
p40
aS'profession'
p41
aS'surname'
p42
atp43
bsS'name'
p44
Nstp45
Rp46
ag15
(cpandas.core.indexes.range
RangeIndex
p47
(dp48
S'start'
p49
I0
sS'step'
p50
I1
sS'stop'
p51
I190
sg44
Nstp52
Rp53
a(lp54
g19
(g20
(I0
tp55
g22
tp56
Rp57
(I1
(I2
I190
tp58
g26
(S'i8'
p59
I0
I1
tp60
Rp61
(I3
S'<'
p62
NNNI-1
I-1
I0
tp63
bI00
S'\x01\x00\x00\x00\x00\x00\x00\x00\x01\x00\x00\x00\x00\x00\x00\x00\x00\x00\x00\x00\x00\x00\x00\x00\x01\x00\x00\x00\x00\x00\x00\x00\x01\x00\x00\x00\x00\x00\x00\x00\x01\x00\x00\x00\x00\x00\x00\x00\x01\x00\x00\x00\x00\x00\x00\x00\x01\x00\x00\x00\x00\x00\x00\x00\x01\x00\x00\x00\x00\x00\x00\x00\x01\x00\x00\x00\x00\x00\x00\x00\x01\x00\x00\x00\x00\x00\x00\x00\x00\x00\x00\x00\x00\x00\x00\x00\x01\x00\x00\x00\x00\x00\x00\x00\x01\x00\x00\x00\x00\x00\x00\x00\x00\x00\x00\x00\x00\x00\x00\x00\x01\x00\x00\x00\x00\x00\x00\x00\x01\x00\x00\x00\x00\x00\x00\x00\x01\x00\x00\x00\x00\x00\x00\x00\x00\x00\x00\x00\x00\x00\x00\x00\x01\x00\x00\x00\x00\x00\x00\x00\x00\x00\x00\x00\x00\x00\x00\x00\x01\x00\x00\x00\x00\x00\x00\x00\x00\x00\x00\x00\x00\x00\x00\x00\x00\x00\x00\x00\x00\x00\x00\x00\x01\x00\x00\x00\x00\x00\x00\x00\x00\x00\x00\x00\x00\x00\x00\x00\x01\x00\x00\x00\x00\x00\x00\x00\x00\x00\x00\x00\x00\x00\x00\x00\x00\x00\x00\x00\x00\x00\x00\x00\x01\x00\x00\x00\x00\x00\x00\x00\x01\x00\x00\x00\x00\x00\x00\x00\x01\x00\x00\x00\x00\x00\x00\x00\x00\x00\x00\x00\x00\x00\x00\x00\x01\x00\x00\x00\x00\x00\x00\x00\x01\x00\x00\x00\x00\x00\x00\x00\x01\x00\x00\x00\x00\x00\x00\x00\x01\x00\x00\x00\x00\x00\x00\x00\x00\x00\x00\x00\x00\x00\x00\x00\x00\x00\x00\x00\x00\x00\x00\x00\x01\x00\x00\x00\x00\x00\x00\x00\x01\x00\x00\x00\x00\x00\x00\x00\x01\x00\x00\x00\x00\x00\x00\x00\x01\x00\x00\x00\x00\x00\x00\x00\x01\x00\x00\x00\x00\x00\x00\x00\x01\x00\x00\x00\x00\x00\x00\x00\x01\x00\x00\x00\x00\x00\x00\x00\x01\x00\x00\x00\x00\x00\x00\x00\x01\x00\x00\x00\x00\x00\x00\x00\x01\x00\x00\x00\x00\x00\x00\x00\x00\x00\x00\x00\x00\x00\x00\x00\x01\x00\x00\x00\x00\x00\x00\x00\x00\x00\x00\x00\x00\x00\x00\x00\x00\x00\x00\x00\x00\x00\x00\x00\x01\x00\x00\x00\x00\x00\x00\x00\x01\x00\x00\x00\x00\x00\x00\x00\x00\x00\x00\x00\x00\x00\x00\x00\x01\x00\x00\x00\x00\x00\x00\x00\x01\x00\x00\x00\x00\x00\x00\x00\x01\x00\x00\x00\x00\x00\x00\x00\x00\x00\x00\x00\x00\x00\x00\x00\x00\x00\x00\x00\x00\x00\x00\x00\x01\x00\x00\x00\x00\x00\x00\x00\x00\x00\x00\x00\x00\x00\x00\x00\x00\x00\x00\x00\x00\x00\x00\x00\x00\x00\x00\x00\x00\x00\x00\x00\x01\x00\x00\x00\x00\x00\x00\x00\x01\x00\x00\x00\x00\x00\x00\x00\x01\x00\x00\x00\x00\x00\x00\x00\x01\x00\x00\x00\x00\x00\x00\x00\x01\x00\x00\x00\x00\x00\x00\x00\x01\x00\x00\x00\x00\x00\x00\x00\x01\x00\x00\x00\x00\x00\x00\x00\x00\x00\x00\x00\x00\x00\x00\x00\x00\x00\x00\x00\x00\x00\x00\x00\x00\x00\x00\x00\x00\x00\x00\x00\x00\x00\x00\x00\x00\x00\x00\x00\x01\x00\x00\x00\x00\x00\x00\x00\x00\x00\x00\x00\x00\x00\x00\x00\x01\x00\x00\x00\x00\x00\x00\x00\x00\x00\x00\x00\x00\x00\x00\x00\x01\x00\x00\x00\x00\x00\x00\x00\x01\x00\x00\x00\x00\x00\x00\x00\x00\x00\x00\x00\x00\x00\x00\x00\x01\x00\x00\x00\x00\x00\x00\x00\x00\x00\x00\x00\x00\x00\x00\x00\x01\x00\x00\x00\x00\x00\x00\x00\x01\x00\x00\x00\x00\x00\x00\x00\x01\x00\x00\x00\x00\x00\x00\x00\x00\x00\x00\x00\x00\x00\x00\x00\x01\x00\x00\x00\x00\x00\x00\x00\x01\x00\x00\x00\x00\x00\x00\x00\x01\x00\x00\x00\x00\x00\x00\x00\x01\x00\x00\x00\x00\x00\x00\x00\x01\x00\x00\x00\x00\x00\x00\x00\x01\x00\x00\x00\x00\x00\x00\x00\x01\x00\x00\x00\x00\x00\x00\x00\x01\x00\x00\x00\x00\x00\x00\x00\x01\x00\x00\x00\x00\x00\x00\x00\x01\x00\x00\x00\x00\x00\x00\x00\x00\x00\x00\x00\x00\x00\x00\x00\x01\x00\x00\x00\x00\x00\x00\x00\x01\x00\x00\x00\x00\x00\x00\x00\x01\x00\x00\x00\x00\x00\x00\x00\x00\x00\x00\x00\x00\x00\x00\x00\x01\x00\x00\x00\x00\x00\x00\x00\x01\x00\x00\x00\x00\x00\x00\x00\x00\x00\x00\x00\x00\x00\x00\x00\x00\x00\x00\x00\x00\x00\x00\x00\x01\x00\x00\x00\x00\x00\x00\x00\x01\x00\x00\x00\x00\x00\x00\x00\x00\x00\x00\x00\x00\x00\x00\x00\x00\x00\x00\x00\x00\x00\x00\x00\x01\x00\x00\x00\x00\x00\x00\x00\x01\x00\x00\x00\x00\x00\x00\x00\x01\x00\x00\x00\x00\x00\x00\x00\x01\x00\x00\x00\x00\x00\x00\x00\x01\x00\x00\x00\x00\x00\x00\x00\x01\x00\x00\x00\x00\x00\x00\x00\x01\x00\x00\x00\x00\x00\x00\x00\x01\x00\x00\x00\x00\x00\x00\x00\x00\x00\x00\x00\x00\x00\x00\x00\x01\x00\x00\x00\x00\x00\x00\x00\x01\x00\x00\x00\x00\x00\x00\x00\x01\x00\x00\x00\x00\x00\x00\x00\x00\x00\x00\x00\x00\x00\x00\x00\x01\x00\x00\x00\x00\x00\x00\x00\x01\x00\x00\x00\x00\x00\x00\x00\x00\x00\x00\x00\x00\x00\x00\x00\x00\x00\x00\x00\x00\x00\x00\x00\x01\x00\x00\x00\x00\x00\x00\x00\x01\x00\x00\x00\x00\x00\x00\x00\x01\x00\x00\x00\x00\x00\x00\x00\x00\x00\x00\x00\x00\x00\x00\x00\x00\x00\x00\x00\x00\x00\x00\x00\x00\x00\x00\x00\x00\x00\x00\x00\x00\x00\x00\x00\x00\x00\x00\x00\x01\x00\x00\x00\x00\x00\x00\x00\x00\x00\x00\x00\x00\x00\x00\x00\x01\x00\x00\x00\x00\x00\x00\x00\x01\x00\x00\x00\x00\x00\x00\x00\x01\x00\x00\x00\x00\x00\x00\x00\x01\x00\x00\x00\x00\x00\x00\x00\x00\x00\x00\x00\x00\x00\x00\x00\x01\x00\x00\x00\x00\x00\x00\x00\x01\x00\x00\x00\x00\x00\x00\x00\x01\x00\x00\x00\x00\x00\x00\x00\x01\x00\x00\x00\x00\x00\x00\x00\x01\x00\x00\x00\x00\x00\x00\x00\x00\x00\x00\x00\x00\x00\x00\x00\x01\x00\x00\x00\x00\x00\x00\x00\x01\x00\x00\x00\x00\x00\x00\x00\x00\x00\x00\x00\x00\x00\x00\x00\x00\x00\x00\x00\x00\x00\x00\x00\x01\x00\x00\x00\x00\x00\x00\x00\x00\x00\x00\x00\x00\x00\x00\x00\x00\x00\x00\x00\x00\x00\x00\x00\x00\x00\x00\x00\x00\x00\x00\x00\x01\x00\x00\x00\x00\x00\x00\x00\x00\x00\x00\x00\x00\x00\x00\x00\x00\x00\x00\x00\x00\x00\x00\x00\x01\x00\x00\x00\x00\x00\x00\x00\x01\x00\x00\x00\x00\x00\x00\x00\x00\x00\x00\x00\x00\x00\x00\x00\x00\x00\x00\x00\x00\x00\x00\x00\x01\x00\x00\x00\x00\x00\x00\x00\x00\x00\x00\x00\x00\x00\x00\x00\x01\x00\x00\x00\x00\x00\x00\x00\x01\x00\x00\x00\x00\x00\x00\x00\x01\x00\x00\x00\x00\x00\x00\x00\x00\x00\x00\x00\x00\x00\x00\x00\x00\x00\x00\x00\x00\x00\x00\x00\x01\x00\x00\x00\x00\x00\x00\x00\x01\x00\x00\x00\x00\x00\x00\x00\x00\x00\x00\x00\x00\x00\x00\x00\x00\x00\x00\x00\x00\x00\x00\x00\x00\x00\x00\x00\x00\x00\x00\x00\x01\x00\x00\x00\x00\x00\x00\x00\x01\x00\x00\x00\x00\x00\x00\x00\x01\x00\x00\x00\x00\x00\x00\x00\x01\x00\x00\x00\x00\x00\x00\x00\x01\x00\x00\x00\x00\x00\x00\x00\x00\x00\x00\x00\x00\x00\x00\x00\x01\x00\x00\x00\x00\x00\x00\x00\x01\x00\x00\x00\x00\x00\x00\x00\x00\x00\x00\x00\x00\x00\x00\x00\x00\x00\x00\x00\x00\x00\x00\x00\x01\x00\x00\x00\x00\x00\x00\x00\x01\x00\x00\x00\x00\x00\x00\x00\x01\x00\x00\x00\x00\x00\x00\x00\x01\x00\x00\x00\x00\x00\x00\x00\x01\x00\x00\x00\x00\x00\x00\x00\x00\x00\x00\x00\x00\x00\x00\x00\x01\x00\x00\x00\x00\x00\x00\x00\x00\x00\x00\x00\x00\x00\x00\x00\x01\x00\x00\x00\x00\x00\x00\x00\x01\x00\x00\x00\x00\x00\x00\x00\x00\x00\x00\x00\x00\x00\x00\x00\x01\x00\x00\x00\x00\x00\x00\x00\x00\x00\x00\x00\x00\x00\x00\x00\x00\x00\x00\x00\x00\x00\x00\x00\x00\x00\x00\x00\x00\x00\x00\x00\x01\x00\x00\x00\x00\x00\x00\x00\x00\x00\x00\x00\x00\x00\x00\x00\x00\x00\x00\x00\x00\x00\x00\x00\x00\x00\x00\x00\x00\x00\x00\x00\x01\x00\x00\x00\x00\x00\x00\x00\x00\x00\x00\x00\x00\x00\x00\x00\x00\x00\x00\x00\x00\x00\x00\x00\x00\x00\x00\x00\x00\x00\x00\x00\x00\x00\x00\x00\x00\x00\x00\x00\x00\x00\x00\x00\x00\x00\x00\x00\x00\x00\x00\x00\x00\x00\x00\x00\x00\x00\x00\x00\x00\x00\x00\x00\x00\x00\x00\x00\x00\x00\x00\x00\x00\x00\x00\x00\x00\x00\x00\x00\x01\x00\x00\x00\x00\x00\x00\x00\x00\x00\x00\x00\x00\x00\x00\x00\x00\x00\x00\x00\x00\x00\x00\x00\x00\x00\x00\x00\x00\x00\x00\x00\x01\x00\x00\x00\x00\x00\x00\x00\x00\x00\x00\x00\x00\x00\x00\x00\x00\x00\x00\x00\x00\x00\x00\x00\x00\x00\x00\x00\x00\x00\x00\x00\x00\x00\x00\x00\x00\x00\x00\x00\x00\x00\x00\x00\x00\x00\x00\x00\x00\x00\x00\x00\x00\x00\x00\x00\x00\x00\x00\x00\x00\x00\x00\x00\x00\x00\x00\x00\x00\x00\x00\x00\x00\x00\x00\x00\x00\x00\x00\x00\x01\x00\x00\x00\x00\x00\x00\x00\x00\x00\x00\x00\x00\x00\x00\x00\x01\x00\x00\x00\x00\x00\x00\x00\x00\x00\x00\x00\x00\x00\x00\x00\x00\x00\x00\x00\x00\x00\x00\x00\x00\x00\x00\x00\x00\x00\x00\x00\x01\x00\x00\x00\x00\x00\x00\x00\x00\x00\x00\x00\x00\x00\x00\x00\x01\x00\x00\x00\x00\x00\x00\x00\x00\x00\x00\x00\x00\x00\x00\x00\x01\x00\x00\x00\x00\x00\x00\x00\x00\x00\x00\x00\x00\x00\x00\x00\x01\x00\x00\x00\x00\x00\x00\x00\x01\x00\x00\x00\x00\x00\x00\x00\x01\x00\x00\x00\x00\x00\x00\x00\x01\x00\x00\x00\x00\x00\x00\x00\x01\x00\x00\x00\x00\x00\x00\x00\x01\x00\x00\x00\x00\x00\x00\x00\x00\x00\x00\x00\x00\x00\x00\x00\x00\x00\x00\x00\x00\x00\x00\x00\x00\x00\x00\x00\x00\x00\x00\x00\x01\x00\x00\x00\x00\x00\x00\x00\x00\x00\x00\x00\x00\x00\x00\x00\x01\x00\x00\x00\x00\x00\x00\x00\x01\x00\x00\x00\x00\x00\x00\x00\x01\x00\x00\x00\x00\x00\x00\x00\x01\x00\x00\x00\x00\x00\x00\x00\x00\x00\x00\x00\x00\x00\x00\x00\x00\x00\x00\x00\x00\x00\x00\x00\x01\x00\x00\x00\x00\x00\x00\x00\x01\x00\x00\x00\x00\x00\x00\x00\x01\x00\x00\x00\x00\x00\x00\x00\x00\x00\x00\x00\x00\x00\x00\x00\x01\x00\x00\x00\x00\x00\x00\x00\x00\x00\x00\x00\x00\x00\x00\x00\x01\x00\x00\x00\x00\x00\x00\x00\x00\x00\x00\x00\x00\x00\x00\x00\x00\x00\x00\x00\x00\x00\x00\x00\x01\x00\x00\x00\x00\x00\x00\x00\x00\x00\x00\x00\x00\x00\x00\x00\x00\x00\x00\x00\x00\x00\x00\x00\x00\x00\x00\x00\x00\x00\x00\x00\x01\x00\x00\x00\x00\x00\x00\x00\x01\x00\x00\x00\x00\x00\x00\x00\x00\x00\x00\x00\x00\x00\x00\x00\x00\x00\x00\x00\x00\x00\x00\x00\x00\x00\x00\x00\x00\x00\x00\x00\x00\x00\x00\x00\x00\x00\x00\x00\x00\x00\x00\x00\x00\x00\x00\x00\x01\x00\x00\x00\x00\x00\x00\x00\x00\x00\x00\x00\x00\x00\x00\x00\x01\x00\x00\x00\x00\x00\x00\x00\x01\x00\x00\x00\x00\x00\x00\x00\x00\x00\x00\x00\x00\x00\x00\x00\x01\x00\x00\x00\x00\x00\x00\x00\x01\x00\x00\x00\x00\x00\x00\x00\x00\x00\x00\x00\x00\x00\x00\x00\x00\x00\x00\x00\x00\x00\x00\x00\x01\x00\x00\x00\x00\x00\x00\x00\x00\x00\x00\x00\x00\x00\x00\x00\x00\x00\x00\x00\x00\x00\x00\x00\x00\x00\x00\x00\x00\x00\x00\x00\x01\x00\x00\x00\x00\x00\x00\x00\x01\x00\x00\x00\x00\x00\x00\x00\x00\x00\x00\x00\x00\x00\x00\x00\x00\x00\x00\x00\x00\x00\x00\x00\x00\x00\x00\x00\x00\x00\x00\x00\x00\x00\x00\x00\x00\x00\x00\x00\x01\x00\x00\x00\x00\x00\x00\x00\x00\x00\x00\x00\x00\x00\x00\x00\x00\x00\x00\x00\x00\x00\x00\x00\x01\x00\x00\x00\x00\x00\x00\x00\x00\x00\x00\x00\x00\x00\x00\x00\x00\x00\x00\x00\x00\x00\x00\x00\x00\x00\x00\x00\x00\x00\x00\x00\x00\x00\x00\x00\x00\x00\x00\x00\x00\x00\x00\x00\x00\x00\x00\x00\x01\x00\x00\x00\x00\x00\x00\x00\x00\x00\x00\x00\x00\x00\x00\x00\x00\x00\x00\x00\x00\x00\x00\x00\x00\x00\x00\x00\x00\x00\x00\x00\x01\x00\x00\x00\x00\x00\x00\x00\x01\x00\x00\x00\x00\x00\x00\x00\x01\x00\x00\x00\x00\x00\x00\x00\x00\x00\x00\x00\x00\x00\x00\x00\x01\x00\x00\x00\x00\x00\x00\x00\x00\x00\x00\x00\x00\x00\x00\x00\x01\x00\x00\x00\x00\x00\x00\x00\x01\x00\x00\x00\x00\x00\x00\x00\x00\x00\x00\x00\x00\x00\x00\x00\x00\x00\x00\x00\x00\x00\x00\x00\x00\x00\x00\x00\x00\x00\x00\x00\x01\x00\x00\x00\x00\x00\x00\x00\x01\x00\x00\x00\x00\x00\x00\x00\x01\x00\x00\x00\x00\x00\x00\x00\x00\x00\x00\x00\x00\x00\x00\x00\x00\x00\x00\x00\x00\x00\x00\x00\x00\x00\x00\x00\x00\x00\x00\x00\x01\x00\x00\x00\x00\x00\x00\x00\x00\x00\x00\x00\x00\x00\x00\x00\x00\x00\x00\x00\x00\x00\x00\x00\x01\x00\x00\x00\x00\x00\x00\x00\x00\x00\x00\x00\x00\x00\x00\x00\x01\x00\x00\x00\x00\x00\x00\x00\x01\x00\x00\x00\x00\x00\x00\x00\x01\x00\x00\x00\x00\x00\x00\x00\x01\x00\x00\x00\x00\x00\x00\x00\x00\x00\x00\x00\x00\x00\x00\x00\x00\x00\x00\x00\x00\x00\x00\x00\x01\x00\x00\x00\x00\x00\x00\x00\x00\x00\x00\x00\x00\x00\x00\x00\x01\x00\x00\x00\x00\x00\x00\x00\x00\x00\x00\x00\x00\x00\x00\x00\x00\x00\x00\x00\x00\x00\x00\x00\x00\x00\x00\x00\x00\x00\x00\x00\x01\x00\x00\x00\x00\x00\x00\x00\x01\x00\x00\x00\x00\x00\x00\x00\x00\x00\x00\x00\x00\x00\x00\x00\x01\x00\x00\x00\x00\x00\x00\x00\x00\x00\x00\x00\x00\x00\x00\x00\x01\x00\x00\x00\x00\x00\x00\x00\x00\x00\x00\x00\x00\x00\x00\x00\x00\x00\x00\x00\x00\x00\x00\x00\x01\x00\x00\x00\x00\x00\x00\x00\x01\x00\x00\x00\x00\x00\x00\x00\x00\x00\x00\x00\x00\x00\x00\x00\x01\x00\x00\x00\x00\x00\x00\x00\x00\x00\x00\x00\x00\x00\x00\x00\x00\x00\x00\x00\x00\x00\x00\x00\x01\x00\x00\x00\x00\x00\x00\x00\x00\x00\x00\x00\x00\x00\x00\x00\x00\x00\x00\x00\x00\x00\x00\x00\x00\x00\x00\x00\x00\x00\x00\x00\x01\x00\x00\x00\x00\x00\x00\x00\x01\x00\x00\x00\x00\x00\x00\x00\x01\x00\x00\x00\x00\x00\x00\x00\x00\x00\x00\x00\x00\x00\x00\x00\x00\x00\x00\x00\x00\x00\x00\x00\x00\x00\x00\x00\x00\x00\x00\x00\x00\x00\x00\x00\x00\x00\x00\x00\x00\x00\x00\x00\x00\x00\x00\x00\x00\x00\x00\x00\x00\x00\x00\x00\x00\x00\x00\x00\x00\x00\x00\x00\x00\x00\x00\x00\x00\x00\x00\x00\x00\x00\x00\x00\x00\x00\x00\x00\x00\x00\x00\x00\x00\x00\x00\x00\x01\x00\x00\x00\x00\x00\x00\x00\x00\x00\x00\x00\x00\x00\x00\x00\x01\x00\x00\x00\x00\x00\x00\x00\x00\x00\x00\x00\x00\x00\x00\x00\x00\x00\x00\x00\x00\x00\x00\x00'
p64
tp65
bag19
(g20
(I0
tp66
g22
tp67
Rp68
(I1
(I8
I190
tp69
g29
I00
(lp70
V1956-10-01
p71
aV1986-06-03
p72
aS'NA'
p73
aV1939-04-07
p74
aV1936-09-29
p75
ag73
aV1964-01-07
p76
aV1926-08-13
p77
aV1966-04-22
p78
aV1961-05-06
p79
aV1960-08-17
p80
ag73
aV1947-09-21
p81
aV1955-03-19
p82
ag73
aV1966-10-09
p83
aV1989-07-23
p84
aV1972-09-27
p85
ag73
aV1945-03-23
p86
ag73
aV1974-11-11
p87
ag73
aS'No date found... sorry'
p88
aV1974-07-30
p89
ag73
aV1963-12-18
p90
ag73
ag73
aV1893-12-26
p91
aV1972-08-15
p92
aV1971-05-14
p93
ag73
aV1969-11-10
p94
aV1982-07-24
p95
aV1942-06-18
p96
aV1986-08-21
p97
ag73
ag73
aV1918-07-18
p98
ag73
ag73
aV1935-12-01
p99
aV1967-06-20
p100
aV1992-11-23
p101
aV1925-06-29
p102
aV1969-11-04
p103
aV1913-01-09
p104
aV1977-04-23
p105
ag73
ag73
ag73
ag73
aV1937-04-28
p106
aV1946-06-14
p107
aV1955-02-14
p108
ag73
ag73
aV1971-10-29
p109
ag73
ag73
ag73
ag73
aV1949-02-14
p110
ag73
aV1977-12-21
p111
aV1994-03-01
p112
aV1958-08-25
p113
aV1975-01-11
p114
aV1954-07-17
p115
aV1952-10-07
p116
ag73
ag73
ag73
ag73
ag73
aV1941-05-24
p117
ag73
aV1958-01-26
p118
aV1979-07-23
p119
aV1975-08-07
p120
aV1874-11-30
p121
ag73
aV1990-08-15
p122
ag73
aV1937-06-01
p123
aV1969-02-11
p124
aV1952-10-27
p125
ag73
aV1990-04-15
p126
aV1983-01-08
p127
aV1961-08-04
p128
aV1984-10-25
p129
aV1923-05-27
p130
aV1917-11-19
p131
aV1948-06-21
p132
aV1966-01-13
p133
aV1973-03-09
p134
aV1980-12-18
p135
ag73
aV1949-08-31
p136
aV1972-04-09
p137
aV1929-08-24
p138
ag73
aV1975-10-05
p139
ag73
ag73
ag73
aV1948-09-20
p140
aV1954-02-18
p141
ag73
ag73
aV1969-07-24
p142
aV1970-04-29
p143
aV1947-03-25
p144
aV1947-04-12
p145
ag73
aV1952-02-07
p146
ag73
aV1969-03-27
p147
ag73
ag73
ag73
aV1985-03-26
p148
ag73
aV1946-12-18
p149
aV1947-07-30
p150
ag73
ag73
aV1974-03-24
p151
ag73
aV1946-07-06
p152
ag73
ag73
ag73
ag73
aV1985-02-05
p153
ag73
aV1962-11-19
p154
aV1939-03-29
p155
aV1971-12-25
p156
aV1973-06-15
p157
ag73
aV1949-04-20
p158
ag73
aV1879-11-07
p159
aV1962-07-03
p160
aV1964-09-30
p161
ag73
aV1963-03-27
p162
aV1911-02-06
p163
ag73
ag73
aV1969-10-11
p164
ag73
ag73
ag73
aV1986-07-06
p165
ag73
aV1977-08-22
p166
ag73
aV1967-10-28
p167
ag73
ag73
aV1981-06-09
p168
ag73
aV1975-06-04
p169
aV1965-04-04
p170
aV1966-08-20
p171
ag73
ag73
aV1942-07-13
p172
aV1925-10-13
p173
ag73
ag73
ag73
ag73
aV1980-10-21
p174
ag73
aV1972-08-30
p175
aV1981-12-02
p176
ag73
aV1958-09-22
p177
aV1991-02-17
p178
ag73
ag73
aV1958-03-10
p179
aV1917-05-29
p180
aV1981-08-08
p181
aV1981-09-26
p182
aS'Theresa Mary May (</span>/</span></span>; n\xc3\xa9e\xc2\xa0Brasier; born 1 October 1956) is a British politician serving as Prime Minister of the United Kingdom and Leader of the Conservative Party since 2016. She served as Home Secretary from 2010 to 2016. May was first elected Member of Parliament (MP) for Maidenhead in 1997. Ideologically, she identifies herself as a one-nation conservative.\n'
p183
aS"Rafael Nadal Parera (, ; born 3 June 1986) is a Spanish professional tennis player, currently world No. 2 in men's singles tennis by the Association of Tennis Professionals (ATP).\n"
p184
ag73
aS'Francis Ford Coppola (</span>/</span></span>; born April 7, 1939) is an American film director, producer, screenwriter and film composer. He was a central figure in the New Hollywood wave of filmmaking.\n'
p185
aS'Silvio Berlusconi (; born 29 September 1936) is an Italian media tycoon and politician who has served as Prime Minister of Italy in four governments.\n'
p186
ag73
aS"Nicolas Kim Coppola (born January 7, 1964), known professionally as Nicolas Cage, is an American actor, director and producer. During his early career, Cage starred in a variety of films such as Valley Girl (1983), Racing with the Moon (1984), Birdy (1984), Peggy Sue Got Married (1986), Raising Arizona (1987), Moonstruck (1987), Vampire's Kiss (1989), Wild at Heart (1990), Fire Birds (1990), Honeymoon in Vegas (1992), and Red Rock West (1993).\n"
p187
aS'Fidel Alejandro Castro Ruz (; 13 August 1926 \xe2\x80\x93 25 November 2016) was a Cuban communist revolutionary and politician who governed the Republic of Cuba as Prime Minister from 1959 to 1976 and then as President from 1976 to 2008. A Marxist\xe2\x80\x93Leninist and Cuban nationalist, Castro also served as the First Secretary of the Communist Party of Cuba from 1961 until 2011. Under his administration, Cuba became a one-party communist state, while industry and business were nationalized and state socialist reforms were implemented throughout society.\n'
p188
aS"Jeffrey Dean Morgan (born April 22, 1966) is an American actor. He is known for his roles as John Winchester on the fantasy horror series Supernatural (2005\xe2\x80\x9307), Denny Duquette on the medical drama series Grey's Anatomy (2006\xe2\x80\x9309), The Comedian in the superhero film Watchmen (2009), Jason Crouse on the political drama series The Good Wife (2015\xe2\x80\x9316), Negan on the horror drama series The Walking Dead (2016\xe2\x80\x93present), and Harvey Russell in Rampage (2018).\n"
p189
aS'George Timothy Clooney (born May 6, 1961) is an American actor, filmmaker and businessman. He is the recipient of three Golden Globe Awards and two Academy Awards, one for acting in Syriana (2006) and the other for co-producing Argo (2012). In 2018, he was the recipient of the AFI Live Achievement Award, at the age of 57.\n'
p190
aS'Sean Justin Penn (born August 17, 1960) is an American actor and filmmaker. He has won two Academy Awards, for his roles in the mystery drama Mystic River (2003) and the biopic Milk (2008).\n'
p191
ag73
aS'Stephen Edwin King (born September 21, 1947) is an American author of horror, supernatural fiction, suspense, science fiction and fantasy. His books have sold more than 350 million copies, many of which have been adapted into feature films, miniseries, television series, and comic books. King has published 58 novels, including seven under the pen name Richard Bachman, and six non-fiction books. He has written around 200 short stories, most of which have been published in book collections.\n'
p192
aS'Walter Bruce Willis (born March 19, 1955) is an American actor, producer, and singer. Born to a German mother and American father in Idar-Oberstein, Germany, he moved to the United States with his family in 1957. His career began on the Off-Broadway stage in the 1970s. He later achieved fame with his leading role on the hit television series Moonlighting (1985\xe2\x80\x9389). He has since appeared in over 70 films and is widely regarded as an "action hero" due to his portrayal of John McClane in the Die Hard franchise (1988\xe2\x80\x932013), and other such roles.\n'
p193
ag73
aS'David William Donald Cameron (born 9 October 1966) is a British politician who served as Prime Minister of the United Kingdom from 2010 to 2016 and Leader of the Conservative Party from 2005 to 2016. He was Member of Parliament (MP) for Witney from 2001 to 2016. He identifies as a one-nation conservative, and has been associated with both economically liberal and socially liberal policies.\n'
p194
aS'Daniel Jacob Radcliffe (born 23 July 1989) is an English actor and producer best known for his role as the titular protagonist in the Harry Potter film series, based on the novels by J. K. Rowling.\n'
p195
aS'Gwyneth Paltrow (</span>/</span></span>; born September 27, 1972) is an American actress, businesswoman, socialite, lifestyle guru, singer, and food writer. She has won various accolades, including an Academy Award, a Golden Globe Award, a Primetime Emmy Award and two Screen Actors Guild Awards.\n'
p196
ag73
aS'Francesco "Franco" Battiato (; born 23 March 1945, Ionia, Sicily) is an Italian singer-songwriter, composer, filmmaker and, under the pseudonym S\xc3\xbcphan Barzani, also a painter. Battiato\'s songs contain esoteric, philosophical and religious themes.\n'
p197
ag73
aS'Leonardo Wilhelm DiCaprio (</span>/</span></span>; born November 11, 1974) is an American actor, film producer, and environmentalist. DiCaprio began his career by appearing in television commercials in the late 1980s. He next had recurring roles in various television series, such as the soap opera Santa Barbara and the sitcom Growing Pains.\n'
p198
ag73
aS'Suresh Singh Rawat is an Indian politician from the Bharatiya Janata Party and a  member of the Rajasthan Legislative Assembly representing the Pushkar Vidhan Sabha constituency of Rajasthan.\n'
p199
aS'Hilary Ann Swank (born July 30, 1974) is an American actress and producer. She has received two Academy Awards, two Golden Globe Awards, two Critics Choice Awards, and a Screen Actors Guild Award.\n'
p200
ag73
aS'William Bradley Pitt (born December 18, 1963) is an American actor and film producer. He has received multiple awards and nominations including an Academy Award as producer under his own company Plan B Entertainment.\n'
p201
ag73
ag73
aS"Mao Zedong (December 26, 1893\xc2\xa0\xe2\x80\x93 September 9, 1976), also known as Chairman Mao, was a Chinese communist revolutionary who became the founding father of the People's Republic of China, which he ruled as the Chairman of the Communist Party of China from its establishment in 1949 until his death in 1976. His theories, military strategies, and political policies are collectively known as Maoism.\n"
p202
aS'Benjamin G\xc3\xa9za Affleck-Boldt (born August 15, 1972) is an American actor and filmmaker. His accolades include two Academy Awards, three Golden Globe Awards, two BAFTA Awards, and two Screen Actors Guild Awards. He began his career as a child and starred in the PBS educational series The Voyage of the Mimi in 1984, before a second run in 1988. He later appeared in the independent coming-of-age comedy Dazed and Confused (1993) and various Kevin Smith films, including Chasing Amy (1997) and Dogma (1999). Affleck gained wider recognition when he and childhood friend Matt Damon won the Golden Globe and Academy Award for Best Original Screenplay for writing Good Will Hunting (1997), which they also starred in. He then established himself as a leading man in studio films, including the disaster drama Armageddon (1998), the romantic comedy Forces of Nature (1999), the war drama Pearl Harbor (2001), and the spy thriller The Sum of All Fears (2002).\n'
p203
aS'Sofia Carmina Coppola (</span>/</span></span>; born May 14, 1971) is an American screenwriter, director, producer, and former actress.\n'
p204
ag73
aS'Ellen Kathleen Pompeo (born November 10, 1969) is an American actress, director, and producer. She is one of the highest paid television actors, having signed a $20 million annual contract with the American Broadcasting Company in late 2017. She was honored with the 2007 Special Achievement in Entertaining by the National Italian American Foundation for her contributions to the entertainment industry.\n'
p205
aS'Anna Helene Paquin (</span>/</span></span> <i title="English pronunciation respelling">-win; born 24 July 1982) is a New Zealand-Canadian-American  actress. She was born in Manitoba and brought up in Wellington, New Zealand, before moving to Los Angeles during her youth. She completed a year at Columbia University before leaving to focus on her acting career. As a child, she played the role of Flora McGrath in Jane Campion\'s romantic drama film The Piano (1993), despite having had little acting experience. For her performance, she received the Academy Award for Best Supporting Actress at the age of 11, making her the second-youngest winner in Oscar history.\n'
p206
aS'Sir James Paul McCartney  (born 18 June 1942) is an English singer-songwriter, multi-instrumentalist, and composer. He gained worldwide fame as the bass guitarist and singer for the rock band the Beatles, widely considered the most popular and influential group in the history of popular music. His songwriting partnership with John Lennon remains the most successful in history. After the group disbanded in 1970, he pursued a solo career and formed the band Wings with his first wife, Linda, and Denny Laine.\n'
p207
aS'Usain St Leo Bolt  (</span>/</span></span>; born 21 August 1986) is a Jamaican retired sprinter and world record holder in the 100 metres, 200 metres and 4 \xc3\x97 100 metres relay. His reign as Olympic Games champion in all of these events spans three Olympics. Owing to his achievements and dominance in sprint competition, he is widely considered to be the greatest sprinter of all time.\n'
p208
ag73
ag73
aS"Nelson Rolihlahla Mandela (</span>/</span></span>; ; 18 July 1918\xc2\xa0\xe2\x80\x93 5 December 2013) was a South African anti-apartheid revolutionary, political leader, and philanthropist who served as President of South Africa from 1994 to 1999. He was the country's first black head of state and the first elected in a fully representative democratic election. His government focused on dismantling the legacy of apartheid by tackling institutionalised racism and fostering racial reconciliation. Ideologically an African nationalist and socialist, he served as President of the African National Congress (ANC) party from 1991 to 1997.\n"
p209
ag73
ag73
aS'Heywood "Woody" Allen  (born Allan Stewart Konigsberg; December 1, 1935) is an American director, writer, actor, and comedian whose career spans more than six decades. He began his career as a comedy writer in the 1950s, writing jokes and scripts for television and publishing several books of short humor pieces. In the early 1960s, Allen began performing as a stand-up comedian, emphasizing monologues rather than traditional jokes. As a comedian, he developed the persona of an insecure, intellectual, fretful nebbish, which he maintains is quite different from his real-life personality. In 2004, Comedy Central ranked Allen fourth on a list of the 100 greatest stand-up comedians, while a UK survey ranked Allen as the third-greatest comedian.\n'
p210
aS'Nicole Mary Kidman  (born 20 June 1967) is an Australian actress and producer. She is the recipient of multiple awards, including an Academy Award, two Primetime Emmy Awards, five Golden Globe Awards, the Silver Bear for Best Actress, and a Cannes Film Festival special award.\n'
p211
aS'Miley Ray Cyrus (born Destiny Hope Cyrus; November 23, 1992) is an American singer, songwriter, and actress. After playing minor roles in the television series Doc and the film Big Fish in her childhood, she became a teen idol starring as the character Miley Stewart on the Disney Channel television series Hannah Montana in 2006. Her father Billy Ray Cyrus also starred on the series, which aired for four seasons until 2011.\n'
p212
aS'Giorgio Napolitano,  (; born 29 June 1925) is an Italian politician who served as the 11th President of the Republic from 2006 to 2015, the only Italian President to be reelected to the Presidency. Due to his dominant position in Italian politics, critics often refer to him as Re Giorgio ("King George"). He is the longest serving President in the history of the modern Italian Republic, which has been in existence since 1946.\n'
p213
aS"Matthew David McConaughey (</span>/</span></span>; born November 4, 1969)  is an American actor and producer. He first gained notice for his breakout role in the coming-of-age comedy Dazed and Confused (1993), before going on to appear in the slasher film Texas Chainsaw Massacre: The Next Generation (1994), A Time to Kill (1996), the comedy film Larger than Life (1996), Steven Spielberg's historical drama Amistad (1997), the science fiction drama Contact (1997), the comedy EDtv (1999), and the war film U-571 (2000).\n"
p214
aS'Richard Milhous Nixon (January 9, 1913 \xe2\x80\x93 April 22, 1994) was the 37th President of the United States from 1969 until 1974 and the only president to resign from the position. He had previously served as the 36th Vice President of the United States from 1953 to 1961, and prior to that as both a U.S. Representative and Senator from California.\n'
p215
aS"John William Oliver (born 23 April 1977) is an English comedian, writer, producer, political commentator, actor, and television host. Oliver started his career as a stand-up comedian, both in the United Kingdom and United States. He came to wider attention for his work on The Daily Show with Jon Stewart as its senior British correspondent from 2006 to 2013. Oliver won three Primetime Emmy Awards for his work as a writer on The Daily Show and was its guest host for an eight-week period in 2013. In addition to The Daily Show, Oliver co-hosted the satirical comedy podcast The Bugle (2007\xe2\x80\x932015) with Andy Zaltzman, with whom Oliver had previously co-hosted the radio series Political Animal, and hosted John Oliver's New York Stand-Up Show on Comedy Central from 2010 to 2013. He has also acted on television, most notably in a recurring role as Ian Duncan on the NBC sitcom Community.\n"
p216
ag73
ag73
ag73
ag73
aS'Saddam Hussein Abd al-Majid al-Tikriti (</span>/</span></span>; Arabic:  <i lang="ar-Latn" title="DIN 31635 Arabic (Arabic language) transliteration">\xe1\xb9\xa2add\xc4\x81m \xe1\xb8\xa4usayn \xca\xbfAbd al-Ma\xc7\xa7\xc4\xabd al-Tikr\xc4\xabt\xc4\xab; 28 April 1937\xc2\xa0\xe2\x80\x93 30 December 2006) was President of Iraq from 16 July 1979 until 9 April 2003. A leading member of the revolutionary Arab Socialist Ba\'ath Party, and later, the Baghdad-based Ba\'ath Party and its regional organization the Iraqi Ba\'ath Party\xe2\x80\x94which espoused Ba\'athism, a mix of Arab nationalism and socialism\xe2\x80\x94Saddam played a key role in the 1968 coup (later referred to as the 17 July Revolution) that brought the party to power in Iraq.\n'
p217
aS'Donald John Trump (born June 14, 1946) is the 45th and current President of the United States. Before entering politics, he was a businessman and television personality.\n'
p218
aS'Virginio Merola (born February 14, 1955 in Santa Maria Capua Vetere) is an Italian politician. Merola is a member of the Democratic Party and the current mayor of Bologna.\n'
p219
ag73
ag73
aS"Winona Ryder (born Winona Laura Horowitz; October 29, 1971) is an American actress and film producer. One of the most successful and iconic actresses of the 1990s, she made her film debut in  Lucas (1986). As Lydia Deetz, a goth teenager in Tim Burton's Beetlejuice (1988), she garnered critical acclaim and widespread recognition. After appearances in film and on television, Ryder continued her acting career with the cult film Heathers (1988), a controversial satire that has since become a landmark teen film. She later appeared in the coming of age drama Mermaids (1990), earning a Golden Globe Award nomination, and in the same year appeared alongside Johnny Depp in Burton's dark fairy-tale Edward Scissorhands (1990), and shortly thereafter opposite Gary Oldman in Francis Ford Coppola's gothic horror romance Bram Stoker's Dracula (1992).\n"
p220
ag73
ag73
ag73
ag73
aS"Richard Edmund Neal (born February 14, 1949) is an American politician and the U.S. Representative for Massachusetts's 1st congressional district. He is a member of the Democratic Party and a former city councilor and mayor of Springfield, Massachusetts. He is currently the dean of the Massachusetts delegation to the House of Representatives.\n"
p221
ag73
aS'Emmanuel Jean-Michel Fr\xc3\xa9d\xc3\xa9ric Macron (; born 21 December 1977) is a French politician serving as President of France since 2017. He previously was Minister of the Economy, Industry and Digital Affairs from 2014 to 2016.\n'
p222
aS'Justin Drew Bieber (</span>/</span></span>; born March 1, 1994) is a Canadian singer-songwriter. After talent manager Scooter Braun discovered him through his YouTube videos covering songs in 2008 and he signed to RBMG, Bieber released his debut EP, My World, in late 2009. It was certified platinum in the US. He became the first artist to have seven songs from a debut record chart on the Billboard Hot 100. Bieber released his first full-length studio album, My World 2.0, in 2010. It debuted at number one in several countries, was certified triple platinum in the US, and contained his single "Baby".\n'
p223
aS"Timothy Walter Burton (born August 25, 1958) is an American film director, producer, artist, writer, and animator. He is known for his dark, gothic, and eccentric horror and fantasy films such as Beetlejuice (1988), Edward Scissorhands (1990), The Nightmare Before Christmas (1993), Ed Wood (1994), Sleepy Hollow (1999), Corpse Bride (2005), Sweeney Todd: The Demon Barber of Fleet Street (2007), Dark Shadows (2012), and Frankenweenie (2012). He is also known for blockbusters such as the adventure comedy Pee-wee's Big Adventure (1985), the superhero films Batman (1989) and its first sequel Batman Returns (1992), the sci-fi film Planet of the Apes (2001), the fantasy drama Big Fish (2003), the musical adventure film Charlie and the Chocolate Factory (2005), and the fantasy film Alice in Wonderland (2010).\n"
p224
aS'Matteo Renzi (; born 11 January 1975) is an Italian politician who served as the Prime Minister of Italy from February 2014 until December 2016. After the rejection of his constitutional reform in the December 2016 referendum, Renzi formally resigned on 12 December when Foreign Affairs Minister Paolo Gentiloni was appointed new head of the government by President Sergio Mattarella. His government is the fourth longest one in the history of Italy as a republic. Renzi served as President of the Province of Florence from 2004 to 2009 and as Mayor of Florence from 2009 to 2014.\n'
p225
aS'Angela Dorothea Merkel (</span>/</span></span>; ; n\xc3\xa9e Kasner, born 17 July 1954) is a German politician serving as Chancellor of Germany since 2005 and leader of the centre-right Christian Democratic Union (CDU) since 2000. Merkel has been widely described as the de facto leader of the European Union, the most powerful woman in the world, and the leader of the Free World.\n'
p226
aS'Vladimir Vladimirovich Putin (</span>/</span></span>; Russian: , ; born 7 October 1952) is a Russian politician and former intelligence officer serving as President of Russia since 2012, previously holding the position from 2000 until 2008. In between his presidential terms he was also the Prime Minister of Russia under his close associate Dmitry Medvedev.\n'
p227
ag73
ag73
ag73
ag73
ag73
aS'Bob Dylan (born Robert Allen Zimmerman, May 24, 1941) is an American singer-songwriter, author, and artist who has been an influential figure in popular music and culture for more than five decades. Much of his most celebrated work dates from the 1960s, when he became a reluctant "voice of a generation" with songs such as "Blowin\' in the Wind" and "The Times They Are a-Changin\'" which became anthems for the Civil Rights Movement and anti-war movement. In 1965, he controversially "went electric", branching out from his earlier work and alienating some fans of the American folk music revival, recording a six-minute single, "Like a Rolling Stone", which enlarged the scope of popular music.\n'
p228
ag73
aS'Ellen Lee DeGeneres (</span>/</span></span> <i title="English pronunciation respelling">d\xc9\x99--\xc9\x99r-\xc9\x99s; born January 26, 1958) is an American comedian, television host, actress, writer, producer, and LGBT activist. She starred in the popular sitcom Ellen from 1994 to 1998 and has hosted her syndicated TV talk show, The Ellen DeGeneres Show, since 2003.\n'
p229
aS'Alessandro Agostini (born 23 July 1979) is an Italian retired footballer who played as a defender.\n'
p230
aS'Charlize Theron (</span> <wbr/></span>/</span></span> <i title="English pronunciation respelling">shar- -\xc9\x99n; ; born 7 August 1975) is a South African-American actress and film producer. She is the recipient of several accolades, including an Academy Award, a Golden Globe Award, and the Silver Bear for Best Actress.\n'
p231
aS'Sir Winston Leonard Spencer-Churchill (30 November 1874\xc2\xa0\xe2\x80\x93 24 January 1965) was a British politician, statesman, army officer, and writer, who was Prime Minister of the United Kingdom from 1940 to 1945 and again from 1951 to 1955. As Prime Minister, Churchill led Britain to victory in the Second World War. Churchill represented five constituencies during his career as Member of Parliament (MP). Ideologically an economic liberal and British imperialist, he began and ended his parliamentary career as a member of the Conservative Party, which he led from 1940 to 1955, but for twenty years from 1904 he was a prominent member of the Liberal Party.\n'
p232
ag73
aS'Jennifer Shrader Lawrence (born August 15, 1990) is an American actress. Her films have grossed over $5.7 billion worldwide, and she was the highest-paid actress in the world in 2015 and 2016. Lawrence appeared in Time 100 most influential people in the world list in 2013 and in the Forbes Celebrity 100 list in 2014 and 2016.\n'
p233
ag73
aS'Morgan Freeman (born June 1, 1937) is an American actor, producer, and narrator. Freeman won an Academy Award in 2005 for Best Supporting Actor with Million Dollar Baby (2004), and he has received Oscar nominations for his performances in Street Smart (1987), Driving Miss Daisy (1989), The Shawshank Redemption (1994), and Invictus (2009). He has also won a Golden Globe Award and a Screen Actors Guild Award.\n'
p234
aS'Jennifer Joanna Aniston (born February 11, 1969) is an American actress, film producer, and businessperson. She is the daughter of Greek-born actor John Aniston and American actress Nancy Dow. Aniston gained worldwide recognition for portraying Rachel Green on the television sitcom Friends (1994\xe2\x80\x932004), a role which earned her a Primetime Emmy Award, a Golden Globe Award, and a Screen Actors Guild Award (SAG). The character was widely popular during the airing of the series and was later recognized as one of the greatest female characters in American television.\n'
p235
aS"Roberto Remigio Benigni,  (; born 27 October 1952) is an Italian actor, comedian, screenwriter and director.  He co-wrote, directed and acted in the 1997 film Life Is Beautiful, which won him the Academy Award for Best Actor at the 71st Oscars Ceremony. He also portrayed Inspector Clouseau's son in Son of the Pink Panther (1993) and has collaborated with filmmaker Jim Jarmusch in three of his films: Down by Law (1986), Night on Earth (1991) and Coffee and Cigarettes (2003).\n"
p236
ag73
aS'Emma Charlotte Duerre Watson (born 15 April 1990) is an English actress, model, and activist. Born in Paris and brought up in Oxfordshire, Watson attended the Dragon School and trained as an actress at the Oxford branch of Stagecoach Theatre Arts. As a child artist, she rose to prominence after landing her first professional acting role as Hermione Granger in the Harry Potter film series, having acted only in school plays previously. Watson appeared in all eight Harry Potter films from 2001 to 2011, earning worldwide fame, critical accolades, and around $60\xc2\xa0million.\n'
p237
aS"Kim Jong-un (officially transcribed Kim Jong Un; Chos\xc5\x8fn'g\xc5\xadl:\xc2\xa0; ; born 8 January 1983) is a North Korean politician serving as Supreme Leader of North Korea since 2011 and Leader of the Workers' Party of Korea since 2012. Kim is the second child of Kim Jong-il (1941\xe2\x80\x932011) and Ko Yong-hui (1952\xe2\x80\x932004). The grandson of Kim Il-sung, the first leader of North Korea from 1948 to 1994, he is the first North Korean leader to have been born after the country's founding.\n"
p238
aS'Barack Hussein Obama II (</span> <wbr/></span> <wbr/></span>/</span></span>; born August 4, 1961) is an American politician who served as the 44th President of the United States from 2009 to 2017. A member of the Democratic Party, he was the first African American to be elected to the presidency and previously served as a United States Senator from Illinois (2005\xe2\x80\x932008).\n'
p239
aS'Katheryn Elizabeth Hudson (born October 25, 1984), known professionally as Katy Perry, is an American singer, songwriter, and television personality. After singing in church during her childhood, she pursued a career in gospel music as a teenager. Perry signed with Red Hill Records and released her debut studio album Katy Hudson under her birth name in 2001, which was commercially unsuccessful. She moved to Los Angeles the following year to venture into secular music after Red Hill ceased operations and she subsequently began working with producers Glen Ballard, Dr. Luke, and Max Martin. After adopting the stage name Katy Perry and being dropped by The Island Def Jam Music Group and Columbia Records, she signed a recording contract with Capitol Records in April 2007.\n'
p240
aS'Henry Alfred Kissinger (</span>/</span></span>; ; born Heinz Alfred Kissinger; May 27, 1923) is an American statesman, political scientist, diplomat and geopolitical consultant who served as United States Secretary of State and National Security Advisor under the presidential administrations of Richard Nixon and Gerald Ford. A Jewish refugee who fled Nazi Germany with his family in 1938, he became National Security Advisor in 1969 and U.S. Secretary of State in 1973. For his actions negotiating a ceasefire in Vietnam, Kissinger received the 1973 Nobel Peace Prize under controversial circumstances, with two members of the committee resigning in protest. Kissinger later sought, unsuccessfully, to return the prize after the ceasefire failed.\n'
p241
aS'Indira Priyadarshini Gandhi (; n\xc3\xa9e Nehru; November 19, 1917 \xe2\x80\x93 October 31, 1984), was an Indian politician, stateswoman and a central figure of the Indian National Congress. She was the first and, to date, the only female Prime Minister of India. Indira Gandhi was the daughter of Jawaharlal Nehru, the first prime minister of India. Despite her surname Gandhi, she is not related to the family of Mahatma Gandhi; Gandhi is a common surname in Gujarat. She served as Prime Minister from January 1966 to March 1977 and again from January 1980 until her assassination in October 1984, making her the second longest-serving Indian Prime Minister after her father.\n'
p242
aS'Ian Russell McEwan  (born 21 June 1948) is an English novelist and screenwriter. In 2008, The Times featured him on their list of "The 50 greatest British writers since 1945" and The Daily Telegraph ranked him number 19 in their list of the "100 most powerful people in British culture".\n'
p243
aS'Patrick Galen Dempsey (born January 13, 1966) is a Scottish American actor, best known for his role as neurosurgeon Derek "McDreamy" Shepherd in Grey\'s Anatomy, starring with Ellen Pompeo (Dr. Meredith Grey). He saw early success as an actor, starring in a number of films in the 1980s, including Can\'t Buy Me Love (1987) and Loverboy (1989). In the 1990s, he mostly appeared in smaller roles in film, such as Outbreak (1995) and television, before landing a lead role in Sweet Home Alabama (2002), a surprise box office hit. He has since starred in other films, including Enchanted (2007), Made of Honor (2008), Valentine\'s Day (2010), Flypaper (2011), Freedom Writers (2007), Transformers: Dark of the Moon (2011), and Bridget Jones\'s Baby (2016).\n'
p244
aS'Matteo Salvini (; born 9 March 1973) is an Italian politician serving as Deputy Prime Minister of Italy and Minister of the Interior since 1 June 2018. He has also been Federal Secretary of Northern League since December 2013 and the leader of Us with Salvini since December 2014. He has been a Senator in the Italian Senate since March 2018. He previously served as a Member of the European Parliament (MEP) for the constituency of North-West Italy from 2004 to 2018.\n'
p245
aS"Christina Mar\xc3\xada Aguilera (; born December 18, 1980)  is an American singer, songwriter, actress and television personality. Her work has earned her five Grammy Awards, one Latin Grammy Award, and a star on the Hollywood Walk of Fame. She has sold more than 75 million records worldwide, making her one of the world's best-selling music artists. In 2009, she ranked at number 58 on Rolling Stones list of 100 Greatest Singers of All Time, thereby becoming the youngest and the only artist under 30 to be named. Billboard recognized her as the 20th most successful artist of the 2000s, and in 2013, Time included Aguilera on their annual list of the 100 most influential people in the world.\n"
p246
ag73
aS'Richard Tiffany Gere (IPA: </span>/</span></span>, pronunciation respelling: <i title="English pronunciation respelling">geer; born August 31, 1949) is an American actor. He began in films in the 1970s, playing a supporting role in Looking for Mr. Goodbar (1977) and a starring role in Days of Heaven (1978). He came to prominence with his role in the film American Gigolo (1980), which established him as a leading man and a sex symbol. He went on to star in many well-received films, including An Officer and a Gentleman (1982), The Cotton Club (1984), Pretty Woman (1990), Primal Fear (1996), Runaway Bride (1999), I\'m Not There (2007), Arbitrage (2012) and Norman: The Moderate Rise and Tragic Fall of a New York Fixer (2016). For portraying Billy Flynn in the Academy Award-winning musical Chicago (2002), he won a Golden Globe Award and a Screen Actors Guild Award as part of the cast.\n'
p247
aS"Alain Berset (born 9 April 1972) is a Swiss politician of the Social Democratic Party. Since 1 January 2012, he is a member of the Swiss Federal Council, the seven member Swiss executive, and head of the Federal Department of Home Affairs (the Swiss interior minister). On 1 January 2018, he took office as President of the Swiss Confederation, head of the Federal Council; at age 45, Berset is the youngest President of the Confederation since Marcel Pilet-Golaz in 1934. Before being elected to the Federal Council in December 2011, he was a member of the Swiss Council of States for the Canton of Fribourg since 2003, serving as the chamber's president during the 2008/2009 term.\n"
p248
aS'Mohammed Yasser Abdel Rahman Abdel Raouf Arafat al-Qudwa al-Husseini (</span>, <wbr/></span>/</span></span>; Arabic: \xe2\x80\x8e\xe2\x80\x8e; 24 August 1929 \xe2\x80\x93 11 November 2004), popularly known as Yasser Arafat (Arabic: \xe2\x80\x8e\xc2\xa0, <i lang="ar-Latn" title="Arabic-language transliteration">Y\xc4\x81sir `Araf\xc4\x81t) or by his kunya Abu Ammar (Arabic: \xe2\x80\x8e\xc2\xa0, <i lang="ar-Latn" title="Arabic-language transliteration">\'Ab\xc5\xab `Amm\xc4\x81r), was a Palestinian political leader. He was Chairman of the Palestine Liberation Organization (PLO) from 1969 to 2004 and President of the Palestinian National Authority (PNA) from 1994 to 2004. Ideologically an Arab nationalist, he was a founding member of the Fatah political party, which he led from 1959 until 2004.\n'
p249
ag73
aS'Kate Elizabeth Winslet,  (born 5 October 1975) is an English actress. She is particularly known for her work in period dramas and tragedies, and is often drawn to portraying troubled women. Winslet is the recipient of several accolades, including three British Academy Film Awards, and is among the few performers to have won Academy, Emmy, and Grammy Awards.\n'
p250
ag73
ag73
ag73
aNaS'John Joseph Travolta (born February 18, 1954) is an American actor, film producer, dancer, singer and pilot. Travolta first became known in the 1970s, after appearing on the television series Welcome Back, Kotter (1975\xe2\x80\x931979) and starring in the box office successes Saturday Night Fever (1977) and Grease (1978). His acting career declined through the 1980s, but enjoyed a resurgence in the 1990s with his role in Pulp Fiction (1994), and he has since starred in films such as Get Shorty, Broken Arrow, Face/Off, Swordfish, Be Cool, Wild Hogs, Hairspray, and The Taking of Pelham 123.\n'
p251
ag73
ag73
aS'Jennifer Lynn Lopez (born July 24, 1969) is an American singer, actress, dancer and producer. In 1991, Lopez began appearing as a Fly Girl dancer on In Living Color, where she remained a regular until she decided to pursue an acting career in 1993. For her first leading role in the 1997 Selena biopic of the same name, Lopez received a Golden Globe nomination and became the first Latin actress to earn over US$1 million for a film. She went on to star in Anaconda (1997) and Out of Sight (1998), later establishing herself as the highest-paid Latin actress in Hollywood.\n'
p252
aS"Uma Karuna Thurman (born April 29, 1970) is an American actress and model. She has performed in a variety of films, ranging from romantic comedies and dramas to science fiction and action movies. Following her appearances on the December 1985 and May 1986 covers of British Vogue, Thurman starred in Dangerous Liaisons (1988).  She rose to international prominence with her performance in Pulp Fiction (1994), for which she was nominated for the Academy Award, the BAFTA Award, and the Golden Globe Award for Best Supporting Actress. Often hailed as Quentin Tarantino's muse, she reunited with the director to play the main role in both Kill Bill films (2003\xe2\x80\x932004), which brought her two additional Golden Globe Award nominations.\n"
p253
aS'Sir Elton Hercules John  (born Reginald Kenneth Dwight, 25 March 1947) is an English singer, pianist, and composer. He has worked with lyricist Bernie Taupin as his songwriting partner since 1967; they have collaborated on more than 30 albums. John has sold more than 300million records, making him one of the best-selling music artists in the world. He has more than fifty Top 40 hits, including seven consecutive number one albums in the U.S., 58 Billboard Top 40 singles, 27 Top 10, four which reached number two and nine which reached number one. His tribute single "Candle in the Wind 1997", rewritten in dedication to Diana, Princess of Wales, sold over 33million copies worldwide and is the best-selling single in the history of the UK and U.S. singles charts. He has also composed music, produced records, and has occasionally acted in films.\n'
p254
aS"David Michael Letterman (born April 12, 1947) is an American television host, comedian, writer, and producer. He hosted late night television talk shows for 33 years, beginning with the February 1, 1982, debut of Late Night with David Letterman on NBC, and ending with the May 20, 2015, broadcast of Late Show with David Letterman on CBS. In total, Letterman hosted 6,028 episodes of Late Night and Late Show, surpassing friend and mentor Johnny Carson as the longest-serving late night talk show host in American television history. In 1996 Letterman was ranked 45th on TV Guides 50 Greatest TV Stars of All Time. In 2002, The Late Show with David Letterman was ranked seventh on TV Guide's 50 Greatest TV Shows of All Time.\n"
p255
ag73
aS'<br/>\nVasco Rossi (born 7 February 1952), also known as Vasco or with the nickname Il Blasco, is an Italian singer-songwriter. During his career, he has published 30 albums (not including unofficial releases) and has written over 250 songs, as well as lyrics for other artists.  He calls himself a "provoca(u)tore" (an Italian portmanteau for "provoking author") as throughout his career he has been regularly criticized over his choice of lifestyle and the lyrics in his songs. With more than 35 millions of copies sold, he is one of the best-selling Italian singers.\n'
p256
ag73
aS'Mariah Carey (born March 27, 1969 or 1970) is an American singer and songwriter. Referred to as the "Songbird Supreme" by the Guinness World Records, she is noted for her five-octave vocal range, power, melismatic style, and signature use of the whistle register. She rose to superstardom in 1990 after signing to Columbia Records and releasing her eponymous debut album, which peaked atop the Billboard 200. Carey became the first and only artist to have their first five singles reach number-one on the U.S. Billboard Hot 100 chart, from "Vision of Love" to "Emotions".\n'
p257
ag73
ag73
ag73
aS'Keira Christina Knightley  (born 26 March 1985) is an English actress. She has worked in the British and American film industries, and has starred in Broadway and West End theatre productions. She has won an Empire Award and multiple nominations for British Academy, Golden Globe, and Academy Awards.\n'
p258
ag73
aS'Steven Allan Spielberg   (born December 18, 1946) is an American filmmaker. He is considered one of the founding pioneers of the New Hollywood era and one of the most popular directors and producers in film history.\n'
p259
aS'Arnold Alois Schwarzenegger (</span>/</span></span>; ; born July 30, 1947) is an Austrian-American actor, filmmaker, businessman, investor, author, philanthropist, activist, politician, and former professional bodybuilder and powerlifter. He served two terms as the 38th Governor of California from 2003 to 2011.\n'
p260
ag73
ag73
aS'Alyson Lee Hannigan (born March 24, 1974) is an American actress. She is best known for her roles as Willow Rosenberg on the television series Buffy the Vampire Slayer (1997\xe2\x80\x932003), Lily Aldrin on the sitcom How I Met Your Mother (2005\xe2\x80\x932014), and Michelle Flaherty in the American Pie film series (1999\xe2\x80\x932012).\n'
p261
ag73
aS'George Walker Bush (born July 6, 1946) is an American politician who served as the 43rd President of the United States from 2001 to 2009. He had previously served as the 46th Governor of Texas from 1995 to 2000.\n'
p262
ag73
ag73
ag73
ag73
aS"Cristiano Ronaldo dos Santos Aveiro  (; born 5 February 1985) is a Portuguese professional footballer who plays as a forward for Italian club Juventus and the Portugal national team. Often considered the best player in the world and  regarded by many as one of the greatest players of all time, Ronaldo has a record-tying five Ballon d'Or awards, the most for a European player, and is the first player to win four European Golden Shoes. He has won 26 trophies in his career, including five league titles, five UEFA Champions League titles and one UEFA European Championship. A prolific goalscorer, Ronaldo holds the records for most official goals scored in Europe's top-five leagues (404), the UEFA Champions League (121), the UEFA European Championship (9), as well as those for most assists in the UEFA Champions League (34) and the UEFA European Championship (6). He has scored over 680 senior career goals for club and country.\n"
p263
ag73
aS'Alicia Christian "Jodie" Foster (born November 19, 1962) is an American actress, director, and producer. She has received two Academy Awards, three British Academy Film Awards, two Golden Globe Awards, a Screen Actors Guild Award and the Cecil B DeMille Award. For her work as a director, Foster has been nominated for two Directors Guild of America Awards and a Primetime Emmy Award.\n'
p264
aS'Terence Hill (born Mario Girotti; 29 March 1939) is an Italian actor, film director, screenwriter and film producer.\n'
p265
aS'Justin Pierre James Trudeau  (</span>/</span></span>; ; born December 25, 1971) is a Canadian politician serving as the 23rd and current Prime Minister of Canada since 2015 and Leader of the Liberal Party since 2013. Trudeau is the second-youngest Canadian Prime Minister, after Joe Clark; he is also the first to be related to a previous holder of the post, as the eldest son of Pierre Trudeau.\n'
p266
aS'Neil Patrick Harris (born June 15, 1973) is an American actor, writer, producer, comedian, magician, and singer. He is known primarily for his comedy roles on television and his dramatic and musical stage roles. On television, he is known for playing the title character on Doogie Howser, M.D. (1989\xe2\x80\x931993), Barney Stinson on How I Met Your Mother (2005\xe2\x80\x932014, for which he was nominated for four Emmy Awards), and  Count Olaf in A Series of Unfortunate Events (2017\xe2\x80\x93present).\n'
p267
ag73
aS"Massimo D'Alema (; born 20 April 1949) is an Italian politician who was the 53rd Prime Minister from 1998 to 2000. Later he was Deputy Prime Minister and Minister of Foreign Affairs from 2006 to 2008. He is also a journalist and served for a time as national secretary of the Democratic Party of the Left (PDS). \nSometimes media refers to him as Leader Maximo, due to his first name Massimo, but also for his dominant position in the left-wing coalitions during the Second Republic. Earlier in his career he was a member of the Italian Communist Party, and he was the first former communist to become prime minister of a NATO country.\n"
p268
ag73
aS'Leon Trotsky (</span>/</span></span>; born Lev Davidovich Bronstein; 7 November\xc2\xa0[O.S. 26 October]\xc2\xa01879 \xe2\x80\x93 21 August 1940) was a Russian revolutionary, Marxist theorist, and Soviet politician whose particular strain of Marxist thought is known as Trotskyism.\n'
p269
aNaVMonica Anna Maria Bellucci (, born 30 September 1964) is an Italian actress and model. Bellucci began her career as a fashion model, modeling for the likes of Dolce & Gabbana and Dior, before making a transition to Italian films and later Hollywood films. She is often considered among the most beautiful women in the world.\u000a
p270
ag73
aS'Quentin Jerome Tarantino (</span>/</span></span>; born March 27, 1963) is an American director, writer, and actor. His films are characterized by nonlinear storylines; satirical subject matter; an aestheticization of violence; extended scenes of dialogue; ensemble casts consisting of established and lesser-known performers; references to popular culture and a wide variety of other films; soundtracks primarily containing songs and score pieces from the 1960s to the 1980s; and features of neo-noir film.\n'
p271
aS'Ronald Wilson Reagan (</span>/</span></span>; February 6, 1911\xc2\xa0\xe2\x80\x93 June 5, 2004) was an American politician and actor who served as the 40th President of the United States from 1981 to 1989. Prior to the presidency, he was a Hollywood actor and trade union leader before serving as the 33rd Governor of California from 1967 to 1975.\n'
p272
ag73
ag73
aS'Jury Dimitri Chechi Commendatore OMRI (; born 11 October 1969) is a retired Italian gymnast.\n'
p273
ag73
ag73
ag73
aS'Luigi Di Maio (; born 6 July 1986) is an Italian politician serving as Deputy Prime Minister of Italy and Minister of Economic Development, Labour and Social Policies since 1 June 2018. He previously served as Vice President of the Chamber of Deputies in the XVII Italian legislature. He is the leader of the Five Star Movement, an anti-establishment party founded by Beppe Grillo.\n'
p274
ag73
aS'Jonas Kocher is a musician and composer born in Nyon (Switzerland) in 1977. He is based in Biel/Bienne (Switzerland) since the late 1990s. \n'
p275
ag73
aS'Julia Fiona Roberts (born October 28, 1967) is an American actress and producer. She became a Hollywood star after headlining the romantic comedy Pretty Woman (1990), which grossed $464\xc2\xa0million worldwide. She has won three Golden Globe Awards (out of eight nominations) and has been nominated for four Academy Awards for her film acting, winning the Academy Award for Best Actress for her performance in Erin Brockovich (2000).\n'
p276
ag73
ag73
aS'Natalie Portman (born Neta-Lee Hershlag; June 9, 1981) is a film actress, producer, and director with dual Israeli and American citizenship. She is the recipient of various accolades, including an Academy Award and two Golden Globe Awards.\n'
p277
ag73
aS'Angelina Jolie (</span>/</span></span> <i title="English pronunciation respelling">joh-; born Angelina Jolie Voight, June 4, 1975) is an American actress, filmmaker, and humanitarian. She has received an Academy Award, two Screen Actors Guild Awards, and three Golden Globe Awards, and has been cited as Hollywood\'s highest-paid actress. Jolie made her screen debut as a child alongside her father, Jon Voight, in Lookin\' to Get Out (1982). Her film career began in earnest a decade later with the low-budget production Cyborg 2 (1993), followed by her first leading role in a major film, Hackers (1995). She starred in the critically acclaimed biographical cable films George Wallace (1997) and Gia (1998), and won an Academy Award for Best Supporting Actress for her performance in the drama Girl, Interrupted (1999).\n'
p278
aS"Robert John Downey Jr. (born April 4, 1965) is an American actor and singer. His career has included critical and popular success in his youth, followed by a period of substance abuse and legal difficulties, and a resurgence of commercial success in middle age. For three consecutive years from 2012 to 2015, Downey topped the Forbes list of Hollywood's highest-paid actors, making an estimated $80\xc2\xa0million in earnings between June 2014 and June 2015.\n"
p279
aS'Enrico Letta (; born 20 August 1966) is an Italian politician who was Prime Minister of Italy from 2013 to 2014, leading a grand coalition comprising the centre-left Democratic Party, the centre-right People of Freedom, and the centrist Civic Choice. He has also been a Member of the Chamber of Deputies since 2006. Letta was Minister of European Affairs from 1998 to 1999 and Minister of Industry from 1999 to 2001, and served as Secretary to the Council of Ministers from 2006 to 2008.\n'
p280
ag73
ag73
aS'Harrison Ford (born July 13, 1942) is an American actor, writer and film producer. He gained worldwide fame for his starring roles as Han Solo in the Star Wars film series and as the title character of the Indiana Jones film series. Five of his movies are within the 30 top-grossing movies of all time at the US box office (when adjusted for inflation). Ford is also known for playing Rick Deckard in the neo-noir dystopian science fiction film Blade Runner (1982) and its sequel Blade Runner 2049 (2017); John Book in the thriller Witness (1985), for which he was nominated for the Academy Award for Best Actor; and Jack Ryan in the action films Patriot Games (1992) and Clear and Present Danger (1994).\n'
p281
aS'Margaret Hilda Thatcher, Baroness Thatcher,  (n\xc3\xa9e\xc2\xa0Roberts; 13 October 1925\xc2\xa0\xe2\x80\x93 8 April 2013) was a British stateswoman who served as Prime Minister of the United Kingdom from 1979 to 1990 and Leader of the Conservative Party from 1975 to 1990. She was the longest-serving British prime minister of the 20th century and the first woman to hold that office. A Soviet journalist dubbed her "The \'Iron Lady", a nickname that became associated with her uncompromising politics and leadership style. As Prime Minister, she implemented policies known as Thatcherism.\n'
p282
ag73
ag73
ag73
ag73
aS"Kimberly Noel Kardashian West (</span>/</span></span>; born October 21, 1980) is an American reality television personality, entrepreneur and socialite. Kardashian first gained media attention as a friend and stylist of Paris Hilton, but received wider notice after a 2003 sex tape with her former boyfriend Ray J was leaked in 2007. Later that year, she and her family began to appear in the E! reality television series Keeping Up with the Kardashians. Its success soon led to the creation of spin-offs including Kourtney and Kim Take New York and Kourtney and Khlo\xc3\xa9 Take Miami. Kardashian's personal life soon became subject to widespread media attention.\n"
p283
ag73
aS"Cameron Michelle Diaz (born August 30, 1972) is an American actress, producer, author, and fashion model. She has frequently appeared in comedies throughout her career, while also earning critical recognition in dramatic films. Her accolades include four Golden Globe Award nominations, three Screen Actors Guild Award nominations, and a  New York Film Critics Award. In 2013, she was named the highest-paid actress over 40 in Hollywood. As of  2018, the U.S. domestic box office grosses of Diaz's films total over $3 billion USD, with worldwide grosses surpassing $7 billion, making her the fifth highest-grossing U.S. domestic box office actress.\n"
p284
aS'Britney Jean Spears (born December 2, 1981) is an American singer, songwriter, dancer, and actress. Born in McComb, Mississippi, and raised in Kentwood, Louisiana, she appeared in stage productions and television series, before signing with Jive Records in 1997. Spears\'s first two studio albums, ...Baby One More Time (1999) and Oops!... I Did It Again (2000), were global successes and made her the best-selling teenage artist of all-time. Referred to as the "Princess of Pop", Spears was credited with influencing the revival of teen pop during the late 1990s and early 2000s.\n'
p285
ag73
aS'Andrea Bocelli,  (; born 22 September 1958) is an Italian singer, songwriter, and record producer. Celine Dion has said that "if God would have a singing voice, he must sound a lot like Andrea Bocelli," and David Foster, a record producer, often describes Bocelli\'s voice as the most beautiful in the world.\n'
p286
aS'Edward Christopher Sheeran,  (</span>/</span></span>; born 17 February 1991) is an English singer, songwriter, guitarist, record producer, and actor. Sheeran was born in Halifax, West Yorkshire, and raised in Framlingham, Suffolk. He attended the Academy of Contemporary Music in Guildford as an undergraduate from the age of 18 in 2009. In early 2011, Sheeran independently released the extended play, No. 5 Collaborations Project.\n'
p287
ag73
ag73
aS"Sharon Vonne Stone (born March 10, 1958) is an American actress, producer, and former fashion model. After modelling in television commercials and print advertisements, she made her film debut as an extra in Woody Allen's comedy-drama Stardust Memories (1980). Her first speaking part was in Wes Craven's horror film Deadly Blessing (1981), and throughout the 1980s, Stone went on to appear in films such as Irreconcilable Differences (1984), King Solomon's Mines (1985), Cold Steel (1987), and Above the Law (1988). She found mainstream prominence with her part in Paul Verhoeven's action film Total Recall (1990).\n"
p288
aS'John Fitzgerald "Jack" Kennedy (May 29, 1917 \xe2\x80\x93 November 22, 1963), commonly referred to by his initials JFK, was an American politician who served as the 35th President of the United States from January 1961 until his assassination in November 1963. He served at the height of the Cold War, and the majority of his presidency dealt with managing relations with the Soviet Union. A member of the Democratic Party, Kennedy represented Massachusetts in the U.S. House of Representatives and Senate prior to becoming president.\n'
p289
aS"Roger Federer (; born 8 August 1981) is a Swiss professional tennis player who is currently ranked world No. 3 in men's singles tennis by the Association of Tennis Professionals (ATP). Federer has won 20 Grand Slam singles titles\xe2\x80\x94the most in history for a male player\xe2\x80\x94and has held the world No. 1 spot in the ATP rankings for a record total of 310 weeks, including a record 237 consecutive weeks. After turning professional in 1998, he was continuously ranked in the top ten from October 2002 to November 2016. He re-entered the top ten following his victory at the 2017 Australian Open.\n"
p290
aS'Serena Jameka Williams (born September 26, 1981) is an American professional tennis player. The Women\'s Tennis Association (WTA) ranked her world No. 1 in singles on eight separate occasions between 2002 and 2017. She reached the No. 1 ranking for the first time on July 8, 2002. On her sixth occasion, she held the ranking for 186 consecutive weeks, tying the record set by Steffi Graf. In total, she has been No. 1 for 319 weeks, which ranks third in the "Open Era" among female players behind Graf and Martina Navratilova.\n'
p291
aS'BRITISH'
p292
aS'SPANISH'
p293
ag73
aS'AMERICAN'
p294
aS'ITALIAN'
p295
ag73
ag294
aS'CUBAN'
p296
ag294
ag294
ag294
ag73
ag294
aS'American'
p297
ag73
ag292
aS'BRITISH'
p298
ag294
ag73
ag295
ag73
ag294
ag73
aS'Indian'
p299
ag294
ag73
aS'American'
p300
ag73
ag73
aS'CHINA'
p301
ag294
ag294
ag73
ag294
ag298
aS'British'
p302
aS'Jamaican'
p303
ag73
ag73
aS'SOUTH AFRICAN'
p304
ag73
ag73
ag294
aS'AUSTRALIAN'
p305
ag294
ag295
ag294
ag294
ag298
ag73
ag73
ag73
ag73
aS'Iraqi'
p306
ag294
aS'Italian'
p307
ag73
ag73
ag294
ag73
ag73
ag73
ag73
ag294
ag73
aS'FRENCH'
p308
aS'CANADIAN'
p309
aS'American'
p310
ag295
aS'GERMAN'
p311
aS'RUSSIAN'
p312
ag73
ag73
ag73
ag73
ag73
ag294
ag73
ag298
ag295
ag298
ag292
ag73
ag294
ag73
ag294
ag294
ag295
ag73
aS'British'
p313
aS'NORTH KOREAN'
p314
ag294
ag294
ag294
aS'INDIAN'
p315
aS'British'
p316
ag294
ag295
ag294
ag73
ag298
aS'SWISS'
p317
aS'Palestinian'
p318
ag73
ag298
ag73
ag73
ag73
aS'American'
p319
ag294
ag73
ag73
ag294
ag294
ag298
ag294
ag73
ag295
ag73
ag294
ag73
ag73
ag73
ag298
ag73
ag294
ag294
ag73
ag73
ag294
ag73
ag294
ag73
ag73
ag73
ag73
aS'PORTUGUESE'
p320
ag73
aS'American'
p321
aS'Italian'
p322
ag309
ag294
ag73
ag295
ag73
ag312
aS'American'
p323
aS'Italian'
p324
ag73
ag294
ag294
ag73
ag73
ag295
ag73
ag73
ag73
ag295
ag73
ag317
ag73
ag294
ag73
ag73
ag294
ag73
ag298
ag294
ag295
ag73
ag73
ag294
ag292
ag73
ag73
ag73
ag73
ag294
ag73
ag294
ag294
ag73
ag295
ag298
ag73
ag73
ag294
ag294
ag317
ag294
aVMary
p325
aVParera
p326
ag73
aVFord
p327
aV
p328
ag73
ag328
aVAlejandro  Ruz
p329
aVDean
p330
aVTimothy
p331
aVJustin
p332
ag73
aVEdwin
p333
aVWalter
p334
ag73
aVWilliam Donald
p335
aVJacob
p336
ag328
ag73
aVFrancesco ""
p337
ag73
aVWilhelm
p338
ag73
aVSingh
p339
aVAnn
p340
ag73
aVWilliam ley
p341
ag73
ag73
ag328
aVjamin Gza -Boldt
p342
aVCarmina
p343
ag73
aVKathleen
p344
aVHelene
p345
aVSir James
p346
aVSt Leo
p347
ag73
ag73
aVRolihlahla
p348
ag73
ag73
aVHeywood ""
p349
aVMary
p350
aVRay
p351
ag328
aVDavid
p352
aVMilhous
p353
aVWilliam
p354
ag73
ag73
ag73
ag73
aVAbd al-Majid al-Tikriti
p355
aVJohn
p356
ag328
ag73
ag73
ag328
ag73
ag73
ag73
ag73
aVEdmund
p357
ag73
aVJean-Michel Frdric
p358
aVDrew
p359
aVothy Walter
p360
ag328
aVDorothea
p361
aVovich
p362
ag73
ag73
ag73
ag73
ag73
ag328
ag73
aVLee
p363
ag328
ag328
aVSir  Leonard Spencer-
p364
ag73
aVShrader
p365
ag73
ag328
aVJoanna
p366
aVRemigio
p367
ag73
aVCharlotte Duerre
p368
ag328
aVHussein  II
p369
ag328
aVAlfred
p370
aVPriyadarshini
p371
aVRussell
p372
aVGalen
p373
ag328
aVMara
p374
ag73
aVTiffany
p375
ag328
ag328
ag73
aVElizabeth
p376
ag73
ag73
ag73
aNaVJoseph
p377
ag73
ag73
aVLynn
p378
aVKaruna
p379
aVSir  Hercules
p380
aVMichael
p381
ag73
ag328
ag73
ag328
ag73
ag73
ag73
aVChristina
p382
ag73
aVAllan
p383
aVAlois
p384
ag73
ag73
aVLee
p385
ag73
aVWalker
p386
ag73
ag73
ag73
ag73
aVdos Santos Aveiro
p387
ag73
aVAlicia Christian ""
p388
ag328
aVPierre James
p389
aVPatrick
p390
ag73
ag328
ag73
ag328
aNaVAnna Maria
p391
ag73
aVJerome
p392
aVWilson
p393
ag73
ag73
aVDimitri
p394
ag73
ag73
ag73
ag328
ag73
ag328
ag73
aVFiona
p395
ag73
ag73
ag328
ag73
aVVoight
p396
aVJohn  Jr.
p397
ag328
ag73
ag73
ag328
aVHilda , Baroness
p398
ag73
ag73
ag73
ag73
aVberly Noel  West
p399
ag73
aVMichelle
p400
aVJean
p401
ag73
ag328
aVward Christopher
p402
ag73
ag73
aVVonne
p403
aVFitzgerald "Jack"
p404
ag328
aVJameka
p405
aF0.0
aF0.0
ag73
aF0.0
aF6600.0
ag73
aF0.0
aF0.0
aF0.0
aF0.0
aF0.0
ag73
aF0.0
aF0.0
ag73
aF0.0
aF0.0
aF0.0
ag73
aF0.0
ag73
aF0.0
ag73
aF0.0
aF0.0
ag73
aF0.0
ag73
ag73
aF0.0
aF0.0
aF0.0
ag73
aF0.0
aF0.0
aF0.0
aF0.0
ag73
ag73
aF0.0
ag73
ag73
aF0.0
aF0.0
aF0.0
aF0.0
aF0.0
aF0.0
aF0.0
ag73
ag73
ag73
ag73
aF0.0
aF3100.0
aF0.0
ag73
ag73
aF0.0
ag73
ag73
ag73
ag73
aF0.0
ag73
aF0.0
aF0.0
aF0.0
aF0.0
aF0.0
aF0.0
ag73
ag73
ag73
ag73
ag73
aF0.0
ag73
aF0.0
aF0.0
aF0.0
aF0.0
ag73
aF0.0
ag73
aF0.0
aF0.0
aF0.0
ag73
aF0.0
aF0.0
aF0.0
aF0.0
aF0.0
aF0.0
aF0.0
aF0.0
aF0.0
aF0.0
ag73
aF0.0
aF0.0
aF0.0
ag73
aF0.0
ag73
ag73
ag73
aF0.0
aF0.0
ag73
ag73
aF0.0
aF0.0
aF0.0
aF0.0
ag73
aF0.0
ag73
aF0.0
ag73
ag73
ag73
aF0.0
ag73
aF0.0
aF0.0
ag73
ag73
aF0.0
ag73
aF0.0
ag73
ag73
ag73
ag73
aF0.0
ag73
aF0.0
aF0.0
aF0.0
aF0.0
ag73
aF0.0
ag73
aF0.0
aF0.0
aF0.0
ag73
aF0.0
aF0.0
ag73
ag73
aF0.0
ag73
ag73
ag73
aF0.0
ag73
aF0.0
ag73
aF0.0
ag73
ag73
aF0.0
ag73
aF0.0
aF0.0
aF0.0
ag73
ag73
aF0.0
aF0.0
ag73
ag73
ag73
ag73
aF0.0
ag73
aF0.0
aF0.0
ag73
aF0.0
aF0.0
ag73
ag73
aF0.0
aF0.0
aF0.0
aF0.0
aS'Theresa'
p406
aS'Rafael'
p407
aS'Victor'
p408
aS'Francis'
p409
aS'Silvio'
p410
aS'Abe'
p411
aS'Nicolas'
p412
aS'Fidel'
p413
aS'Jeffrey'
p414
aS'George'
p415
aS'Sean'
p416
aS'Maria'
p417
aS'Stephen'
p418
aS'Bruce'
p419
aS'Ornella'
p420
aS'David'
p421
aS'Daniel'
p422
aS'Gwyneth'
p423
aS'Celine'
p424
aS'Franco'
p425
aS'Graciela'
p426
aS'Leonardo'
p427
aS'Corinne'
p428
aS'Suresh'
p429
aS'Hilary'
p430
aS'Benedetta'
p431
aS'Brad'
p432
aS'Anne'
p433
aS'Lewis'
p434
aS'Mao'
p435
aS'Ben'
p436
aS'Sofia'
p437
aS'Daria'
p438
aS'Ellen'
p439
aS'Anna'
p440
aS'Paul'
p441
aS'Usain'
p442
aS'Ivan'
p443
ag417
aS'Nelson'
p444
aS'Laurie Blue'
p445
ag444
aS'Woody'
p446
aS'Nicole'
p447
aS'Miley'
p448
aS'Giorgio'
p449
aS'Matthew'
p450
aS'Richard'
p451
aS'John'
p452
aS'Madeline'
p453
aS'Isabel '
p454
ag412
aS'Vincent'
p455
aS'Saddam'
p456
aS'Donald'
p457
aS'Virginio'
p458
aS'Francois'
p459
aS'Lorenzo'
p460
aS'Winona'
p461
aS'Ylva'
p462
aS'Sylvie'
p463
aS'Giselle'
p464
aS'Giovanni Battista'
p465
ag451
aS'Pascal'
p466
aS'Emmanuel'
p467
aS'Justin'
p468
aS'Tim'
p469
aS'Matteo'
p470
aS'Angela'
p471
aS'Vladimir'
p472
aS'Stefani Lady Gaga'
p473
aS'Susanne'
p474
aS'Marlene'
p475
ag421
aS'Daniele'
p476
aS'Bob'
p477
aS'Jean-Jacques'
p478
ag439
aS'Alessandro'
p479
aS'Charlize'
p480
aS'Winston'
p481
aS'Christian'
p482
aS'Jennifer'
p483
aS'Anne-Florence'
p484
aS'Morgan'
p485
ag483
aS'Roberto'
p486
aS'Elise'
p487
aS'Emma'
p488
aS'Kim'
p489
aS'Barack'
p490
aS'Katy'
p491
aS'Henry'
p492
aS'Indira'
p493
aS'Ian'
p494
aS'Patrick'
p495
ag470
aS'Christina'
p496
aS'Monica'
p497
ag451
aS'Alain'
p498
aS'Arafat'
p499
aS'Enrico'
p500
aS'Kate'
p501
aS'Tenzin'
p502
aS'Paola'
p503
aS'Leo'
p504
aS'George R. R.'
p505
ag452
aS'Dylan'
p506
aS'Martina'
p507
ag483
aS'Uma'
p508
aS'Elton'
p509
ag421
aS'Suo Kyi'
p510
aS'Vasco'
p511
aS'J.K.'
p512
aS'Mariah'
p513
aS'Jacky'
p514
aS'Franklin'
p515
aS'Pepe'
p516
aS'Keira'
p517
aS'Georges'
p518
aS'Steven'
p519
aS'Arnold'
p520
aS'Franca'
p521
aS'Rossella'
p522
aS'Alyson'
p523
aS'Marshall Bruce '
p524
ag415
aS'Riccardo'
p525
aS'Marco'
p526
aS'Florin'
p527
aS'Elena'
p528
aS'Ronaldo'
p529
aS'Nathalie'
p530
aS'Jodie'
p531
aS'Terence'
p532
ag468
aS'Neil'
p533
aS'Anne-Catherine'
p534
aS'Massimo'
p535
aS'Pedro'
p536
aS'Leon'
p537
aS'Tom'
p538
ag497
aS'Marta'
p539
aS'Quentin'
p540
aS'Ronald'
p541
aS'Marcela'
p542
aS'Ursula'
p543
aS'Jury'
p544
aS'Giancarlo'
p545
aS'Philippe'
p546
ag503
aS'Luigi'
p547
aS'Nadim'
p548
aS'Jonas'
p549
aS'Sumner'
p550
aS'Julia'
p551
aS'Chloe'
p552
aS'Melanie'
p553
aS'Natalie'
p554
aS'Thierry'
p555
aS'Angelina'
p556
aS'Robert'
p557
ag500
aS'Catarina'
p558
ag486
aS'Harrison'
p559
aS'Margaret'
p560
aS'Gabriele'
p561
aS'Eric'
p562
aS'Federico'
p563
aS'Robyn'
p564
ag489
aS'Kate Isobelle'
p565
aS'Cameron'
p566
aS'Britney'
p567
aS'Aurelio'
p568
aS'Andrea'
p569
aS'Ed'
p570
aS'Luca'
p571
aS'Yves'
p572
aS'Sharon'
p573
ag452
aS'Roger'
p574
aS'Serena'
p575
aS''
p576
ag576
ag73
aS'Film director, screenwriter, film producer, film composer'
p577
aVFounder & Owner of FininvestOwner of S.S. Monza 1912
p578
ag73
aS'Actor, director, producer'
p579
aS'Lawyer'
p580
aS'Actor'
p581
aS'Actor, screenwriter, producer with Smoke House Pictures, director'
p582
aS'Actor, filmmaker'
p583
ag73
aVWriter, actor, television producer, singer, musician
p584
aS'Actor, producer with Cheyenne Enterprises, singer'
p585
ag73
ag576
aVActor, producer
p586
aVActress, singer, writer
p587
ag73
ag576
ag73
aVActor, Appian Way Productions
p588
ag73
aS'Politician'
p589
aVActress, producer
p590
ag73
aVActor, film producer
p591
ag73
ag73
ag576
aVActor, filmmaker
p592
aVDirector, producer, screenwriter, actress
p593
ag73
aVActress, director, producer
p594
aS'Actress'
p595
aVSinger-songwriter, music and film producer, businessman
p596
ag576
ag73
ag73
aVActivist, Politician, Philanthropist, Lawyer
p597
ag73
ag73
aS'Director, writer, actor, comedian'
p598
aVActress, producer
p599
aVSinger, songwriter, actress
p600
ag576
aS'Actor, producer'
p601
ag576
ag576
ag73
ag73
ag73
ag73
ag576
aVPolitician, businessman, real estate developer
p602
aS'Politician'
p603
ag73
ag73
aS'Actress'
p604
ag73
ag73
ag73
ag73
ag576
ag73
ag576
aVSinger, songwriter
p605
aS'Film director, film producer, writer, artist'
p606
ag576
ag576
ag576
ag73
ag73
ag73
ag73
ag73
aVSinger-songwriter, artist, writer
p607
ag73
ag576
ag576
aVActress, Producer
p608
ag576
ag73
aS'Actress'
p609
ag73
aS'Actor'
p610
aVActress, film producer, businessperson
p611
aVFilm director, screenwriter, actor, comedian
p612
ag73
aVActress, model, activist
p613
ag576
ag576
aVSinger, songwriter, actress, businesswoman, philanthropist, television judge
p614
ag576
aS'Politician'
p615
aS'<td class="role" style="line-height:1.4em;">Novelist, screenwriter'
p616
aVActor, Race car driver
p617
ag576
aVSinger, songwriter, actress, television personality
p618
ag73
aVActor
p619
ag576
aS'Civil engineer'
p620
ag73
aS'Actress'
p621
ag73
ag73
ag73
aVNovelist, short story writer, screenwriter
p622
aS'Actor, producer, singer, dancer'
p623
ag73
ag73
aVSinger, actress, dancer, producer
p624
aVActress, model
p625
aVMusician, singer-songwriter, composer
p626
ag576
ag73
aS'singer'
p627
ag73
aVSinger, songwriter, actress, record producer
p628
ag73
ag73
ag73
aS'Actress'
p629
ag73
aS'Filmmaker'
p630
ag576
ag73
ag73
aVActress, television host
p631
ag73
aVBusinessman, politician
p632
ag73
ag73
ag73
ag73
ag576
ag73
aVActress, director, producer
p633
aS'Actor, film director, screenwriter, film producer'
p634
aS'Teacher,Politician'
p635
aVActor, writer, producer, comedian, magician, singer
p636
ag73
ag576
ag73
ag576
aS'Actor, producer'
p637
aS'Actress \xe2\x80\xa2 fashion model'
p638
ag73
aVDirector, writer, actor
p639
aVActor, politician, sports commentator
p640
ag73
ag73
ag576
ag73
ag73
ag73
ag576
ag73
ag576
ag73
aS'Actress, producer'
p641
ag73
ag73
aVActress, film producer, director
p642
ag73
aVActress, filmmaker, activist
p643
aVActor, singer-songwriter
p644
ag576
ag73
ag73
aVActor, producer
p645
aVBarrister, company director, chemist, politician, statesman
p646
ag73
ag73
ag73
ag73
aVTelevision personality, socialite, actress, businesswoman, model
p647
ag73
aVActress, producer, model, author
p648
aVSinger, dancer, actress
p649
ag73
ag576
aVSinger, songwriter, record producer, guitarist, actor
p650
ag73
ag73
aS'Actress, model, film producer'
p651
ag576
ag576
ag576
aS'May'
p652
aS'Nadal'
p653
aS'Allamand'
p654
aS'Coppola'
p655
aS'Berlusconi'
p656
aS'Shinzo'
p657
aS'Cage'
p658
aS'Castro'
p659
aS'Morgan'
p660
aS'Clooney'
p661
aS'Penn'
p662
aS'Lopes'
p663
aS'King'
p664
aS'Willis'
p665
aS'Di Pietro'
p666
aS'Cameron'
p667
aS'Radcliffe'
p668
aS'Paltrow'
p669
aS'Exquis'
p670
aS'Battiato'
p671
aS'Bermudez'
p672
aS'DiCaprio'
p673
aS'Bonvin'
p674
aS'Rawat'
p675
aS'Swank'
p676
aS'Rossi'
p677
aS'Pitt'
p678
aS'Bottani'
p679
aS'Armitage'
p680
aS'Zedong'
p681
aS'Affleck'
p682
ag655
aS'Arkhipova'
p683
aS'Pompeo'
p684
aS'Paquin'
p685
aS'McCartney'
p686
aS'Bolt'
p687
aS'Selva'
p688
aS'Borghesani'
p689
aS'Mandela'
p690
aS'Adkins'
p691
aS'Rockfeller'
p692
aS'Allen'
p693
aS'Kidman'
p694
aS'Cyrus'
p695
aS'Napolitano'
p696
aS'McConaughey'
p697
aS'Nixon'
p698
aS'Oliver'
p699
aS'Donne'
p700
aS'Mebarak Ripoll'
p701
aS'Freymond'
p702
aS'Jaques'
p703
aS'Hussein'
p704
aS'Trump'
p705
aS'Merola'
p706
aS'Hollande'
p707
aS'Cherubini'
p708
aS'Ryder'
p709
aS'Hellgren'
p710
aS'Podio'
p711
aS'Knowles-Carter'
p712
aS'Di Natale'
p713
aS'Neal'
p714
aS'Golay'
p715
aS'Macron'
p716
aS'Bieber'
p717
aS'Burton'
p718
aS'Renzi'
p719
aS'Merkel'
p720
aS'Putin'
p721
aS'Germanotta'
p722
aS'Zaccaria'
p723
aS'Simoes'
p724
aS'Boulaz'
p725
aS'Frossard'
p726
aS'Dylan'
p727
aS'Aubert'
p728
aS'DeGeneres'
p729
aS'Agostini'
p730
aS'Theron'
p731
aS'Churchill'
p732
aS'Burdet'
p733
aS'Lawrence'
p734
aS'Bitbol'
p735
aS'Freeman'
p736
aS'Aniston'
p737
aS'Benigni'
p738
aS'Buckle'
p739
aS'Watson'
p740
aS'Jong-un'
p741
aS'Obama'
p742
aS'Perry'
p743
aS'Kissinger'
p744
aS'Gandhi'
p745
aS'McEwan'
p746
aS'Dempsey'
p747
aS'Salvini'
p748
aS'Aguilera'
p749
aS'Prodon'
p750
aS'Gere'
p751
aS'Berset'
p752
aS'Yasser'
p753
aS'Tibaldi'
p754
aS'Winslet'
p755
aS'Gyatso'
p756
aS'Tofani'
p757
aS'Gaillard'
p758
aS'Martin'
p759
aS'Travolta'
p760
aS'Montefusco'
p761
aS'Merli'
p762
aS'Lopez'
p763
aS'Thurman'
p764
aS'John'
p765
aS'Letterman'
p766
aS'Aung san'
p767
ag677
aS'Rowling'
p768
aS'Carey'
p769
aS'Colomb'
p770
aS'Roosvelt'
p771
aS'Mujica'
p772
aS'Knightley'
p773
aS'Borer'
p774
aS'Spielberg'
p775
aS'Schwarzenegger'
p776
aS'Filippini'
p777
aS'Tomasi'
p778
aS'Hannigan'
p779
aS'Mathers III'
p780
aS'Bush'
p781
aS"Dall'Olio"
p782
aS'Carenza'
p783
aS'Dinu'
p784
aS'Peta'
p785
aS'Cristiano'
p786
aS'Jaccard'
p787
aS'Foster'
p788
aS'Hill'
p789
aS'Trudeau'
p790
aS'Harris'
p791
aS'Aubert-Despland'
p792
aS"D'Alema"
p793
aS'Sanchez'
p794
aS'Trotsky'
p795
aS'Cruise'
p796
aS'Bellucci'
p797
aS'Pinto'
p798
aS'Tarantino'
p799
aS'Reagan'
p800
aS'Rincon'
p801
aS'Utz'
p802
aS'Chechi'
p803
aS'Benaglia'
p804
aS'Deriaz'
p805
aS'Minelli'
p806
aS'Di Maio'
p807
aS'Akhtar'
p808
aS'Kocher'
p809
aS'Gordon Matthew Thomas'
p810
aS'Roberts'
p811
aS'Besse'
p812
aS'Wyss'
p813
aS'Portman'
p814
aS'Campiche'
p815
aS'Jolie'
p816
aS'Downey'
p817
aS'Letta'
p818
aS'Barreira de Sousa'
p819
aS'Bertoni'
p820
aS'Ford'
p821
aS'Thatcher'
p822
aS'Minghetti'
p823
aS'Zuger'
p824
aS'Bellentani'
p825
aS'Fenty'
p826
aS'Kardashian'
p827
aS'Furler'
p828
aS'Diaz'
p829
aS'Spears'
p830
aS'Bay'
p831
aS'Bocelli'
p832
aS'Sheeran'
p833
aS'Pescatore'
p834
aS'Felix'
p835
aS'Stone'
p836
aS'Kennedy'
p837
aS'Federer'
p838
aS'Williams'
p839
atp840
ba(lp841
g15
(g16
(dp842
g18
g19
(g20
(I0
tp843
g22
tp844
Rp845
(I1
(I2
tp846
g29
I00
(lp847
g36
ag37
atp848
bsg44
Nstp849
Rp850
ag15
(g16
(dp851
g18
g19
(g20
(I0
tp852
g22
tp853
Rp854
(I1
(I8
tp855
g29
I00
(lp856
g33
ag34
ag35
ag38
ag39
ag40
ag41
ag42
atp857
bsg44
Nstp858
Rp859
a(dp860
S'0.14.1'
p861
(dp862
S'axes'
p863
g14
sS'blocks'
p864
(lp865
(dp866
S'mgr_locs'
p867
c__builtin__
slice
p868
(I3
I5
I1
tp869
Rp870
sS'values'
p871
g57
sa(dp872
g867
g19
(g20
(I0
tp873
g22
tp874
Rp875
(I1
(I8
tp876
g61
I00
S'\x00\x00\x00\x00\x00\x00\x00\x00\x01\x00\x00\x00\x00\x00\x00\x00\x02\x00\x00\x00\x00\x00\x00\x00\x05\x00\x00\x00\x00\x00\x00\x00\x06\x00\x00\x00\x00\x00\x00\x00\x07\x00\x00\x00\x00\x00\x00\x00\x08\x00\x00\x00\x00\x00\x00\x00\t\x00\x00\x00\x00\x00\x00\x00'
p877
tp878
bsg871
g68
sasstp879
bsb.